ARM GAS  C:\Users\indya\AppData\Local\Temp\ccKs4Gbn.s 			page 1


   1              		.syntax unified
   2              		.cpu cortex-m3
   3              		.fpu softvfp
   4              		.eabi_attribute 20, 1
   5              		.eabi_attribute 21, 1
   6              		.eabi_attribute 23, 3
   7              		.eabi_attribute 24, 1
   8              		.eabi_attribute 25, 1
   9              		.eabi_attribute 26, 1
  10              		.eabi_attribute 30, 1
  11              		.eabi_attribute 34, 1
  12              		.eabi_attribute 18, 4
  13              		.thumb
  14              		.syntax unified
  15              		.file	"InterruptRoutines.c"
  16              		.text
  17              	.Ltext0:
  18              		.cfi_sections	.debug_frame
  19              		.section	.text.CHANGE_ADC_SF,"ax",%progbits
  20              		.align	2
  21              		.global	CHANGE_ADC_SF
  22              		.thumb
  23              		.thumb_func
  24              		.type	CHANGE_ADC_SF, %function
  25              	CHANGE_ADC_SF:
  26              	.LFB64:
  27              		.file 1 "InterruptRoutines.c"
   1:InterruptRoutines.c **** /* ========================================
   2:InterruptRoutines.c ****  *
   3:InterruptRoutines.c ****  * Copyright YOUR COMPANY, THE YEAR
   4:InterruptRoutines.c ****  * All Rights Reserved
   5:InterruptRoutines.c ****  * UNPUBLISHED, LICENSED SOFTWARE.
   6:InterruptRoutines.c ****  *
   7:InterruptRoutines.c ****  * CONFIDENTIAL AND PROPRIETARY INFORMATION
   8:InterruptRoutines.c ****  * WHICH IS THE PROPERTY OF your company.
   9:InterruptRoutines.c ****  *
  10:InterruptRoutines.c ****  * ========================================
  11:InterruptRoutines.c **** */
  12:InterruptRoutines.c **** 
  13:InterruptRoutines.c **** /**************************************************************************************************
  14:InterruptRoutines.c **** /*                                                   INCLUSIONS                                    
  15:InterruptRoutines.c **** /**************************************************************************************************
  16:InterruptRoutines.c **** 
  17:InterruptRoutines.c **** #include "InterruptRoutines.h"
  18:InterruptRoutines.c **** #include "I2C_Interface.h"
  19:InterruptRoutines.c **** #include "SPI_Interface.h"
  20:InterruptRoutines.c **** #include "project.h"
  21:InterruptRoutines.c **** #include "Registers.h"
  22:InterruptRoutines.c **** #include "Pages.h"
  23:InterruptRoutines.c **** 
  24:InterruptRoutines.c **** /**************************************************************************************************
  25:InterruptRoutines.c **** /*                                            VARIABLES DECLARATION                                
  26:InterruptRoutines.c **** /**************************************************************************************************
  27:InterruptRoutines.c **** 
  28:InterruptRoutines.c **** uint8       ch_receveid;                             // flag char 
  29:InterruptRoutines.c **** uint8_t     PB_PRESSED            = 0;               // flag button pressed (1 means "pressed")
  30:InterruptRoutines.c **** uint16_t    TIMER_COUNTER         = 0;               // timer counter variable
ARM GAS  C:\Users\indya\AppData\Local\Temp\ccKs4Gbn.s 			page 2


  31:InterruptRoutines.c **** ErrorCode   error;
  32:InterruptRoutines.c **** 
  33:InterruptRoutines.c **** const mode  LED_ACQUISITION_ON    = {199, 100}; 
  34:InterruptRoutines.c **** const mode  LED_EEPROM_FULL       = { 49,  24};
  35:InterruptRoutines.c **** #define LED_EXT_ON     1
  36:InterruptRoutines.c **** #define LED_EXT_OFF    0
  37:InterruptRoutines.c **** 
  38:InterruptRoutines.c **** /**************************************************************************************************
  39:InterruptRoutines.c **** /*                                            CHANGE ADC SAMPLING FREQ.                            
  40:InterruptRoutines.c **** /**************************************************************************************************
  41:InterruptRoutines.c **** 
  42:InterruptRoutines.c **** void CHANGE_ADC_SF(uint16_t period){
  28              		.loc 1 42 0
  29              		.cfi_startproc
  30              		@ args = 0, pretend = 0, frame = 0
  31              		@ frame_needed = 0, uses_anonymous_args = 0
  32              	.LVL0:
  33 0000 10B5     		push	{r4, lr}
  34              		.cfi_def_cfa_offset 8
  35              		.cfi_offset 4, -8
  36              		.cfi_offset 14, -4
  37 0002 0446     		mov	r4, r0
  43:InterruptRoutines.c ****     
  44:InterruptRoutines.c ****     Timer_sensor_Stop();
  38              		.loc 1 44 0
  39 0004 FFF7FEFF 		bl	Timer_sensor_Stop
  40              	.LVL1:
  45:InterruptRoutines.c ****     Timer_sensor_ReadStatusRegister();
  41              		.loc 1 45 0
  42 0008 FFF7FEFF 		bl	Timer_sensor_ReadStatusRegister
  43              	.LVL2:
  46:InterruptRoutines.c ****     Timer_sensor_WritePeriod(period);
  44              		.loc 1 46 0
  45 000c 2046     		mov	r0, r4
  46 000e FFF7FEFF 		bl	Timer_sensor_WritePeriod
  47              	.LVL3:
  47:InterruptRoutines.c ****     Timer_sensor_ReadStatusRegister();
  48              		.loc 1 47 0
  49 0012 FFF7FEFF 		bl	Timer_sensor_ReadStatusRegister
  50              	.LVL4:
  48:InterruptRoutines.c ****     Timer_sensor_Start();
  51              		.loc 1 48 0
  52 0016 FFF7FEFF 		bl	Timer_sensor_Start
  53              	.LVL5:
  54 001a 10BD     		pop	{r4, pc}
  55              		.cfi_endproc
  56              	.LFE64:
  57              		.size	CHANGE_ADC_SF, .-CHANGE_ADC_SF
  58              		.section	.text.Custom_FIFO_ISR,"ax",%progbits
  59              		.align	2
  60              		.global	Custom_FIFO_ISR
  61              		.thumb
  62              		.thumb_func
  63              		.type	Custom_FIFO_ISR, %function
  64              	Custom_FIFO_ISR:
  65              	.LFB65:
  49:InterruptRoutines.c **** 
ARM GAS  C:\Users\indya\AppData\Local\Temp\ccKs4Gbn.s 			page 3


  50:InterruptRoutines.c **** }
  51:InterruptRoutines.c **** 
  52:InterruptRoutines.c **** /**************************************************************************************************
  53:InterruptRoutines.c **** /*                                               CUSTOM FIFO ISR                                   
  54:InterruptRoutines.c **** /**************************************************************************************************
  55:InterruptRoutines.c **** 
  56:InterruptRoutines.c **** CY_ISR(Custom_FIFO_ISR)
  57:InterruptRoutines.c **** {
  66              		.loc 1 57 0
  67              		.cfi_startproc
  68              		@ args = 0, pretend = 0, frame = 0
  69              		@ frame_needed = 0, uses_anonymous_args = 0
  70 0000 10B5     		push	{r4, lr}
  71              		.cfi_def_cfa_offset 8
  72              		.cfi_offset 4, -8
  73              		.cfi_offset 14, -4
  58:InterruptRoutines.c **** 
  59:InterruptRoutines.c ****     ErrorCode error = I2C_Peripheral_ReadRegisterMulti(LIS3DH_DEVICE_ADDRESS,
  74              		.loc 1 59 0
  75 0002 114B     		ldr	r3, .L11
  76 0004 C022     		movs	r2, #192
  77 0006 2821     		movs	r1, #40
  78 0008 1820     		movs	r0, #24
  79 000a FFF7FEFF 		bl	I2C_Peripheral_ReadRegisterMulti
  80              	.LVL6:
  60:InterruptRoutines.c ****                                                        LIS3DH_OUT_X_L,
  61:InterruptRoutines.c ****                                                        FIFO_DATA_DIM,
  62:InterruptRoutines.c ****                                                        &AccData2[0]);
  63:InterruptRoutines.c ****     
  64:InterruptRoutines.c ****     if (error==NO_ERROR){
  81              		.loc 1 64 0
  82 000e 30B1     		cbz	r0, .L9
  83 0010 10BD     		pop	{r4, pc}
  84              	.LVL7:
  85              	.L6:
  86              	.LBB2:
  65:InterruptRoutines.c **** 
  66:InterruptRoutines.c ****         for (int t=0; t<FIFO_DATA_DIM; t++){
  67:InterruptRoutines.c ****             AccData[t] = AccData2[t];}
  87              		.loc 1 67 0 discriminator 3
  88 0012 0D4A     		ldr	r2, .L11
  89 0014 D15C     		ldrb	r1, [r2, r3]	@ zero_extendqisi2
  90 0016 0D4A     		ldr	r2, .L11+4
  91 0018 D154     		strb	r1, [r2, r3]
  66:InterruptRoutines.c ****             AccData[t] = AccData2[t];}
  92              		.loc 1 66 0 discriminator 3
  93 001a 0133     		adds	r3, r3, #1
  94              	.LVL8:
  95 001c 01E0     		b	.L4
  96              	.LVL9:
  97              	.L9:
  98 001e 0446     		mov	r4, r0
  99              	.LBE2:
 100 0020 0023     		movs	r3, #0
 101              	.L4:
 102              	.LVL10:
 103              	.LBB3:
ARM GAS  C:\Users\indya\AppData\Local\Temp\ccKs4Gbn.s 			page 4


  66:InterruptRoutines.c ****             AccData[t] = AccData2[t];}
 104              		.loc 1 66 0 is_stmt 0 discriminator 1
 105 0022 BF2B     		cmp	r3, #191
 106 0024 F5DD     		ble	.L6
 107              	.LBE3:
  68:InterruptRoutines.c **** 
  69:InterruptRoutines.c **** 
  70:InterruptRoutines.c ****         if (error == NO_ERROR){
 108              		.loc 1 70 0 is_stmt 1
 109 0026 2CB9     		cbnz	r4, .L7
  71:InterruptRoutines.c ****             error = I2C_Peripheral_WriteRegister(LIS3DH_DEVICE_ADDRESS,
 110              		.loc 1 71 0
 111 0028 0022     		movs	r2, #0
 112 002a 2E21     		movs	r1, #46
 113 002c 1820     		movs	r0, #24
 114              	.LVL11:
 115 002e FFF7FEFF 		bl	I2C_Peripheral_WriteRegister
 116              	.LVL12:
 117 0032 0446     		mov	r4, r0
 118              	.LVL13:
 119              	.L7:
  72:InterruptRoutines.c ****                                                  LIS3DH_FIFO_CTRL_REG,
  73:InterruptRoutines.c ****                                                  LIS3DH_FIFO_CTRL_REG_BYPASS_MODE);}
  74:InterruptRoutines.c ****         
  75:InterruptRoutines.c ****         if (error == NO_ERROR){
 120              		.loc 1 75 0
 121 0034 24B9     		cbnz	r4, .L8
  76:InterruptRoutines.c ****             error = I2C_Peripheral_WriteRegister(LIS3DH_DEVICE_ADDRESS,
 122              		.loc 1 76 0
 123 0036 4022     		movs	r2, #64
 124 0038 2E21     		movs	r1, #46
 125 003a 1820     		movs	r0, #24
 126 003c FFF7FEFF 		bl	I2C_Peripheral_WriteRegister
 127              	.LVL14:
 128              	.L8:
  77:InterruptRoutines.c ****                                                  LIS3DH_FIFO_CTRL_REG,
  78:InterruptRoutines.c ****                                                  LIS3DH_FIFO_CTRL_REG_FIFO_MODE);}
  79:InterruptRoutines.c **** 
  80:InterruptRoutines.c ****         FlagFifo = 1;
 129              		.loc 1 80 0
 130 0040 0122     		movs	r2, #1
 131 0042 034B     		ldr	r3, .L11+8
 132 0044 1A70     		strb	r2, [r3]
 133 0046 10BD     		pop	{r4, pc}
 134              	.L12:
 135              		.align	2
 136              	.L11:
 137 0048 00000000 		.word	AccData2
 138 004c 00000000 		.word	AccData
 139 0050 00000000 		.word	FlagFifo
 140              		.cfi_endproc
 141              	.LFE65:
 142              		.size	Custom_FIFO_ISR, .-Custom_FIFO_ISR
 143              		.section	.text.Custom_TIMER_ISR,"ax",%progbits
 144              		.align	2
 145              		.global	Custom_TIMER_ISR
 146              		.thumb
ARM GAS  C:\Users\indya\AppData\Local\Temp\ccKs4Gbn.s 			page 5


 147              		.thumb_func
 148              		.type	Custom_TIMER_ISR, %function
 149              	Custom_TIMER_ISR:
 150              	.LFB66:
  81:InterruptRoutines.c ****             
  82:InterruptRoutines.c ****     }
  83:InterruptRoutines.c ****     
  84:InterruptRoutines.c **** }
  85:InterruptRoutines.c **** 
  86:InterruptRoutines.c **** /**************************************************************************************************
  87:InterruptRoutines.c **** /*                                              CUSTOM TIMER ISR                                   
  88:InterruptRoutines.c **** /**************************************************************************************************
  89:InterruptRoutines.c **** 
  90:InterruptRoutines.c **** CY_ISR(Custom_TIMER_ISR)
  91:InterruptRoutines.c **** {
 151              		.loc 1 91 0
 152              		.cfi_startproc
 153              		@ args = 0, pretend = 0, frame = 0
 154              		@ frame_needed = 0, uses_anonymous_args = 0
 155 0000 38B5     		push	{r3, r4, r5, lr}
 156              		.cfi_def_cfa_offset 16
 157              		.cfi_offset 3, -16
 158              		.cfi_offset 4, -12
 159              		.cfi_offset 5, -8
 160              		.cfi_offset 14, -4
  92:InterruptRoutines.c ****     Timer_sensor_ReadStatusRegister();          // restart the timer
 161              		.loc 1 92 0
 162 0002 FFF7FEFF 		bl	Timer_sensor_ReadStatusRegister
 163              	.LVL15:
  93:InterruptRoutines.c ****     
  94:InterruptRoutines.c ****     if(counter_timer<(SENSOR_DATA_DIM)){
 164              		.loc 1 94 0
 165 0006 234B     		ldr	r3, .L20
 166 0008 1B78     		ldrb	r3, [r3]	@ zero_extendqisi2
 167 000a DBB2     		uxtb	r3, r3
 168 000c 1F2B     		cmp	r3, #31
 169 000e 29D8     		bhi	.L14
  95:InterruptRoutines.c ****         
  96:InterruptRoutines.c ****         SensData[counter_timer]= ADC_Read32();  // read data from ADC
 170              		.loc 1 96 0
 171 0010 204C     		ldr	r4, .L20
 172 0012 2578     		ldrb	r5, [r4]	@ zero_extendqisi2
 173 0014 EDB2     		uxtb	r5, r5
 174 0016 FFF7FEFF 		bl	ADC_Read32
 175              	.LVL16:
 176 001a 80B2     		uxth	r0, r0
 177 001c 1E4A     		ldr	r2, .L20+4
 178 001e 22F81500 		strh	r0, [r2, r5, lsl #1]	@ movhi
  97:InterruptRoutines.c ****         
  98:InterruptRoutines.c ****         /* verify the value */
  99:InterruptRoutines.c ****         if (SensData[counter_timer] < 0)        SensData[counter_timer] = 0;
 179              		.loc 1 99 0
 180 0022 2378     		ldrb	r3, [r4]	@ zero_extendqisi2
 181 0024 DBB2     		uxtb	r3, r3
 182 0026 32F81330 		ldrh	r3, [r2, r3, lsl #1]
 100:InterruptRoutines.c ****         if (SensData[counter_timer] > 65535)    SensData[counter_timer] = 65535;
 183              		.loc 1 100 0
ARM GAS  C:\Users\indya\AppData\Local\Temp\ccKs4Gbn.s 			page 6


 184 002a 2378     		ldrb	r3, [r4]	@ zero_extendqisi2
 185 002c DBB2     		uxtb	r3, r3
 186 002e 32F81330 		ldrh	r3, [r2, r3, lsl #1]
 101:InterruptRoutines.c ****         
 102:InterruptRoutines.c ****         SensBytes[2*counter_timer]     = (uint8_t)(SensData[counter_timer] & 0xFF);  //LSB
 187              		.loc 1 102 0
 188 0032 2378     		ldrb	r3, [r4]	@ zero_extendqisi2
 189 0034 DBB2     		uxtb	r3, r3
 190 0036 2178     		ldrb	r1, [r4]	@ zero_extendqisi2
 191 0038 C9B2     		uxtb	r1, r1
 192 003a 32F81110 		ldrh	r1, [r2, r1, lsl #1]
 193 003e C9B2     		uxtb	r1, r1
 194 0040 1648     		ldr	r0, .L20+8
 195 0042 00F81310 		strb	r1, [r0, r3, lsl #1]
 103:InterruptRoutines.c ****         SensBytes[2*counter_timer + 1] = (uint8_t)(SensData[counter_timer] >> 8);    //MSB
 196              		.loc 1 103 0
 197 0046 2378     		ldrb	r3, [r4]	@ zero_extendqisi2
 198 0048 5B00     		lsls	r3, r3, #1
 199 004a 0133     		adds	r3, r3, #1
 200 004c 2178     		ldrb	r1, [r4]	@ zero_extendqisi2
 201 004e C9B2     		uxtb	r1, r1
 202 0050 32F81120 		ldrh	r2, [r2, r1, lsl #1]
 203 0054 C2F30722 		ubfx	r2, r2, #8, #8
 204 0058 C254     		strb	r2, [r0, r3]
 104:InterruptRoutines.c ****         
 105:InterruptRoutines.c ****         counter_timer ++;
 205              		.loc 1 105 0
 206 005a 2378     		ldrb	r3, [r4]	@ zero_extendqisi2
 207 005c 0133     		adds	r3, r3, #1
 208 005e DBB2     		uxtb	r3, r3
 209 0060 2370     		strb	r3, [r4]
 210 0062 38BD     		pop	{r3, r4, r5, pc}
 211              	.L14:
 106:InterruptRoutines.c ****     }
 107:InterruptRoutines.c ****     
 108:InterruptRoutines.c ****     else if(counter_timer == (SENSOR_DATA_DIM)){
 212              		.loc 1 108 0
 213 0064 0B4B     		ldr	r3, .L20
 214 0066 1B78     		ldrb	r3, [r3]	@ zero_extendqisi2
 215 0068 DBB2     		uxtb	r3, r3
 216 006a 202B     		cmp	r3, #32
 217 006c 10D1     		bne	.L13
 218 006e 06E0     		b	.L18
 219              	.LVL17:
 220              	.L17:
 221              	.LBB4:
 109:InterruptRoutines.c ****         
 110:InterruptRoutines.c ****         int i=0;
 111:InterruptRoutines.c ****         for(i=0;i<SENSOR_DATA_DIM*2;i++)
 112:InterruptRoutines.c ****         {
 113:InterruptRoutines.c ****             SensBytes_old[i]=SensBytes[i];
 222              		.loc 1 113 0 discriminator 3
 223 0070 0A4A     		ldr	r2, .L20+8
 224 0072 D25C     		ldrb	r2, [r2, r3]	@ zero_extendqisi2
 225 0074 D2B2     		uxtb	r2, r2
 226 0076 0A49     		ldr	r1, .L20+12
 227 0078 CA54     		strb	r2, [r1, r3]
ARM GAS  C:\Users\indya\AppData\Local\Temp\ccKs4Gbn.s 			page 7


 111:InterruptRoutines.c ****         {
 228              		.loc 1 111 0 discriminator 3
 229 007a 0133     		adds	r3, r3, #1
 230              	.LVL18:
 231 007c 00E0     		b	.L16
 232              	.LVL19:
 233              	.L18:
 234              	.LBE4:
 235 007e 0023     		movs	r3, #0
 236              	.L16:
 237              	.LVL20:
 238              	.LBB5:
 111:InterruptRoutines.c ****         {
 239              		.loc 1 111 0 is_stmt 0 discriminator 1
 240 0080 3F2B     		cmp	r3, #63
 241 0082 F5DD     		ble	.L17
 114:InterruptRoutines.c ****         }
 115:InterruptRoutines.c ****         counter_timer   = 0;
 242              		.loc 1 115 0 is_stmt 1
 243 0084 0022     		movs	r2, #0
 244 0086 034B     		ldr	r3, .L20
 245              	.LVL21:
 246 0088 1A70     		strb	r2, [r3]
 116:InterruptRoutines.c ****         SensorDataReady = 1;
 247              		.loc 1 116 0
 248 008a 0122     		movs	r2, #1
 249 008c 054B     		ldr	r3, .L20+16
 250 008e 1A70     		strb	r2, [r3]
 251              	.L13:
 252 0090 38BD     		pop	{r3, r4, r5, pc}
 253              	.L21:
 254 0092 00BF     		.align	2
 255              	.L20:
 256 0094 00000000 		.word	counter_timer
 257 0098 00000000 		.word	SensData
 258 009c 00000000 		.word	SensBytes
 259 00a0 00000000 		.word	SensBytes_old
 260 00a4 00000000 		.word	SensorDataReady
 261              	.LBE5:
 262              		.cfi_endproc
 263              	.LFE66:
 264              		.size	Custom_TIMER_ISR, .-Custom_TIMER_ISR
 265              		.section	.text.LED_ACQUISITION_ON_TOGGLE,"ax",%progbits
 266              		.align	2
 267              		.global	LED_ACQUISITION_ON_TOGGLE
 268              		.thumb
 269              		.thumb_func
 270              		.type	LED_ACQUISITION_ON_TOGGLE, %function
 271              	LED_ACQUISITION_ON_TOGGLE:
 272              	.LFB67:
 117:InterruptRoutines.c ****     }
 118:InterruptRoutines.c ****        
 119:InterruptRoutines.c **** }
 120:InterruptRoutines.c **** 
 121:InterruptRoutines.c **** /**************************************************************************************************
 122:InterruptRoutines.c **** /*                                                TOGGLING MODES                                   
 123:InterruptRoutines.c **** /**************************************************************************************************
ARM GAS  C:\Users\indya\AppData\Local\Temp\ccKs4Gbn.s 			page 8


 124:InterruptRoutines.c **** 
 125:InterruptRoutines.c **** void LED_ACQUISITION_ON_TOGGLE(void){
 273              		.loc 1 125 0
 274              		.cfi_startproc
 275              		@ args = 0, pretend = 0, frame = 0
 276              		@ frame_needed = 0, uses_anonymous_args = 0
 277 0000 08B5     		push	{r3, lr}
 278              		.cfi_def_cfa_offset 8
 279              		.cfi_offset 3, -8
 280              		.cfi_offset 14, -4
 126:InterruptRoutines.c ****     PWM_WritePeriod(LED_ACQUISITION_ON.Period);
 281              		.loc 1 126 0
 282 0002 C720     		movs	r0, #199
 283 0004 FFF7FEFF 		bl	PWM_WritePeriod
 284              	.LVL22:
 127:InterruptRoutines.c ****     PWM_WriteCompare(LED_ACQUISITION_ON.CMP);
 285              		.loc 1 127 0
 286 0008 6420     		movs	r0, #100
 287 000a FFF7FEFF 		bl	PWM_WriteCompare
 288              	.LVL23:
 289 000e 08BD     		pop	{r3, pc}
 290              		.cfi_endproc
 291              	.LFE67:
 292              		.size	LED_ACQUISITION_ON_TOGGLE, .-LED_ACQUISITION_ON_TOGGLE
 293              		.section	.text.LED_EEPROM_FULL_TOGGLE,"ax",%progbits
 294              		.align	2
 295              		.global	LED_EEPROM_FULL_TOGGLE
 296              		.thumb
 297              		.thumb_func
 298              		.type	LED_EEPROM_FULL_TOGGLE, %function
 299              	LED_EEPROM_FULL_TOGGLE:
 300              	.LFB68:
 128:InterruptRoutines.c **** }
 129:InterruptRoutines.c **** 
 130:InterruptRoutines.c **** void LED_EEPROM_FULL_TOGGLE(void){
 301              		.loc 1 130 0
 302              		.cfi_startproc
 303              		@ args = 0, pretend = 0, frame = 0
 304              		@ frame_needed = 0, uses_anonymous_args = 0
 305 0000 08B5     		push	{r3, lr}
 306              		.cfi_def_cfa_offset 8
 307              		.cfi_offset 3, -8
 308              		.cfi_offset 14, -4
 131:InterruptRoutines.c ****     PWM_WritePeriod(LED_EEPROM_FULL.Period);
 309              		.loc 1 131 0
 310 0002 3120     		movs	r0, #49
 311 0004 FFF7FEFF 		bl	PWM_WritePeriod
 312              	.LVL24:
 132:InterruptRoutines.c ****     PWM_WriteCompare(LED_EEPROM_FULL.CMP);
 313              		.loc 1 132 0
 314 0008 1820     		movs	r0, #24
 315 000a FFF7FEFF 		bl	PWM_WriteCompare
 316              	.LVL25:
 317 000e 08BD     		pop	{r3, pc}
 318              		.cfi_endproc
 319              	.LFE68:
 320              		.size	LED_EEPROM_FULL_TOGGLE, .-LED_EEPROM_FULL_TOGGLE
ARM GAS  C:\Users\indya\AppData\Local\Temp\ccKs4Gbn.s 			page 9


 321              		.section	.text.Custom_ISR_RX,"ax",%progbits
 322              		.align	2
 323              		.global	Custom_ISR_RX
 324              		.thumb
 325              		.thumb_func
 326              		.type	Custom_ISR_RX, %function
 327              	Custom_ISR_RX:
 328              	.LFB69:
 133:InterruptRoutines.c **** }
 134:InterruptRoutines.c **** 
 135:InterruptRoutines.c **** 
 136:InterruptRoutines.c **** /**************************************************************************************************
 137:InterruptRoutines.c **** /*                                              UART RX INTERRUPT                                  
 138:InterruptRoutines.c **** /**************************************************************************************************
 139:InterruptRoutines.c **** 
 140:InterruptRoutines.c **** CY_ISR(Custom_ISR_RX)
 141:InterruptRoutines.c **** {
 329              		.loc 1 141 0
 330              		.cfi_startproc
 331              		@ args = 0, pretend = 0, frame = 0
 332              		@ frame_needed = 0, uses_anonymous_args = 0
 333 0000 70B5     		push	{r4, r5, r6, lr}
 334              		.cfi_def_cfa_offset 16
 335              		.cfi_offset 4, -16
 336              		.cfi_offset 5, -12
 337              		.cfi_offset 6, -8
 338              		.cfi_offset 14, -4
 142:InterruptRoutines.c ****     /*******************************/
 143:InterruptRoutines.c ****     /*         INPUT CHECK         */
 144:InterruptRoutines.c ****     /*******************************/
 145:InterruptRoutines.c ****     
 146:InterruptRoutines.c ****     // Non-blocking call to get the latest data recieved
 147:InterruptRoutines.c ****     ch_receveid = UART_GetChar();
 339              		.loc 1 147 0
 340 0002 FFF7FEFF 		bl	UART_GetChar
 341              	.LVL26:
 342 0006 894B     		ldr	r3, .L55
 343 0008 1870     		strb	r0, [r3]
 148:InterruptRoutines.c ****         
 149:InterruptRoutines.c ****     // Set flags based on UART command
 150:InterruptRoutines.c ****     switch(ch_receveid){
 344              		.loc 1 150 0
 345 000a 3038     		subs	r0, r0, #48
 346 000c 4628     		cmp	r0, #70
 347 000e 00F22B82 		bhi	.L27
 348 0012 DFE810F0 		tbh	[pc, r0, lsl #1]
 349              	.L29:
 350 0016 F900     		.2byte	(.L28-.L29)/2
 351 0018 2901     		.2byte	(.L30-.L29)/2
 352 001a 8201     		.2byte	(.L31-.L29)/2
 353 001c C001     		.2byte	(.L32-.L29)/2
 354 001e F301     		.2byte	(.L33-.L29)/2
 355 0020 2902     		.2byte	(.L27-.L29)/2
 356 0022 2902     		.2byte	(.L27-.L29)/2
 357 0024 2902     		.2byte	(.L27-.L29)/2
 358 0026 2902     		.2byte	(.L27-.L29)/2
 359 0028 2902     		.2byte	(.L27-.L29)/2
ARM GAS  C:\Users\indya\AppData\Local\Temp\ccKs4Gbn.s 			page 10


 360 002a 2902     		.2byte	(.L27-.L29)/2
 361 002c 2902     		.2byte	(.L27-.L29)/2
 362 002e 2902     		.2byte	(.L27-.L29)/2
 363 0030 2902     		.2byte	(.L27-.L29)/2
 364 0032 2902     		.2byte	(.L27-.L29)/2
 365 0034 4700     		.2byte	(.L34-.L29)/2
 366 0036 2902     		.2byte	(.L27-.L29)/2
 367 0038 2902     		.2byte	(.L27-.L29)/2
 368 003a 4D00     		.2byte	(.L35-.L29)/2
 369 003c 2902     		.2byte	(.L27-.L29)/2
 370 003e 2902     		.2byte	(.L27-.L29)/2
 371 0040 2902     		.2byte	(.L27-.L29)/2
 372 0042 B500     		.2byte	(.L36-.L29)/2
 373 0044 2902     		.2byte	(.L27-.L29)/2
 374 0046 2902     		.2byte	(.L27-.L29)/2
 375 0048 2902     		.2byte	(.L27-.L29)/2
 376 004a 2902     		.2byte	(.L27-.L29)/2
 377 004c 2902     		.2byte	(.L27-.L29)/2
 378 004e BD00     		.2byte	(.L37-.L29)/2
 379 0050 2902     		.2byte	(.L27-.L29)/2
 380 0052 2902     		.2byte	(.L27-.L29)/2
 381 0054 2602     		.2byte	(.L38-.L29)/2
 382 0056 B900     		.2byte	(.L39-.L29)/2
 383 0058 2902     		.2byte	(.L27-.L29)/2
 384 005a 2902     		.2byte	(.L27-.L29)/2
 385 005c 8800     		.2byte	(.L40-.L29)/2
 386 005e 2902     		.2byte	(.L27-.L29)/2
 387 0060 EC00     		.2byte	(.L41-.L29)/2
 388 0062 C100     		.2byte	(.L42-.L29)/2
 389 0064 2902     		.2byte	(.L27-.L29)/2
 390 0066 2902     		.2byte	(.L27-.L29)/2
 391 0068 2902     		.2byte	(.L27-.L29)/2
 392 006a 2902     		.2byte	(.L27-.L29)/2
 393 006c 2902     		.2byte	(.L27-.L29)/2
 394 006e 2902     		.2byte	(.L27-.L29)/2
 395 0070 2902     		.2byte	(.L27-.L29)/2
 396 0072 2902     		.2byte	(.L27-.L29)/2
 397 0074 2902     		.2byte	(.L27-.L29)/2
 398 0076 2902     		.2byte	(.L27-.L29)/2
 399 0078 2902     		.2byte	(.L27-.L29)/2
 400 007a 4D00     		.2byte	(.L35-.L29)/2
 401 007c 2902     		.2byte	(.L27-.L29)/2
 402 007e 2902     		.2byte	(.L27-.L29)/2
 403 0080 2902     		.2byte	(.L27-.L29)/2
 404 0082 B500     		.2byte	(.L36-.L29)/2
 405 0084 2902     		.2byte	(.L27-.L29)/2
 406 0086 2902     		.2byte	(.L27-.L29)/2
 407 0088 2902     		.2byte	(.L27-.L29)/2
 408 008a 2902     		.2byte	(.L27-.L29)/2
 409 008c 2902     		.2byte	(.L27-.L29)/2
 410 008e BD00     		.2byte	(.L37-.L29)/2
 411 0090 2902     		.2byte	(.L27-.L29)/2
 412 0092 2902     		.2byte	(.L27-.L29)/2
 413 0094 2602     		.2byte	(.L38-.L29)/2
 414 0096 B900     		.2byte	(.L39-.L29)/2
 415 0098 2902     		.2byte	(.L27-.L29)/2
 416 009a 2902     		.2byte	(.L27-.L29)/2
ARM GAS  C:\Users\indya\AppData\Local\Temp\ccKs4Gbn.s 			page 11


 417 009c 8800     		.2byte	(.L40-.L29)/2
 418 009e 2902     		.2byte	(.L27-.L29)/2
 419 00a0 EC00     		.2byte	(.L41-.L29)/2
 420 00a2 C100     		.2byte	(.L42-.L29)/2
 421              		.p2align 1
 422              	.L34:
 151:InterruptRoutines.c ****         
 152:InterruptRoutines.c ****         case '?':
 153:InterruptRoutines.c ****             StartStream_flag = 0;
 423              		.loc 1 153 0
 424 00a4 0022     		movs	r2, #0
 425 00a6 624B     		ldr	r3, .L55+4
 426 00a8 1A70     		strb	r2, [r3]
 154:InterruptRoutines.c ****             WELCOME();
 427              		.loc 1 154 0
 428 00aa FFF7FEFF 		bl	WELCOME
 429              	.LVL27:
 155:InterruptRoutines.c ****             break;
 430              		.loc 1 155 0
 431 00ae DBE1     		b	.L27
 432              	.L35:
 156:InterruptRoutines.c ****         
 157:InterruptRoutines.c ****         case 'B':
 158:InterruptRoutines.c ****         case 'b':
 159:InterruptRoutines.c ****             StartAcquisition_flag = 1;
 433              		.loc 1 159 0
 434 00b0 0123     		movs	r3, #1
 435 00b2 604A     		ldr	r2, .L55+8
 436 00b4 1370     		strb	r3, [r2]
 160:InterruptRoutines.c ****             FLAG_BS = 1;
 437              		.loc 1 160 0
 438 00b6 604A     		ldr	r2, .L55+12
 439 00b8 1370     		strb	r3, [r2]
 161:InterruptRoutines.c ****             SETUP_BS_CHANGED = 1;
 440              		.loc 1 161 0
 441 00ba 604A     		ldr	r2, .L55+16
 442 00bc 1370     		strb	r3, [r2]
 162:InterruptRoutines.c ****             Timer_sensor_ReadStatusRegister();
 443              		.loc 1 162 0
 444 00be FFF7FEFF 		bl	Timer_sensor_ReadStatusRegister
 445              	.LVL28:
 163:InterruptRoutines.c ****             Timer_sensor_Start();
 446              		.loc 1 163 0
 447 00c2 FFF7FEFF 		bl	Timer_sensor_Start
 448              	.LVL29:
 164:InterruptRoutines.c ****             error = I2C_Peripheral_WriteRegister(LIS3DH_DEVICE_ADDRESS,
 449              		.loc 1 164 0
 450 00c6 0222     		movs	r2, #2
 451 00c8 2221     		movs	r1, #34
 452 00ca 1820     		movs	r0, #24
 453 00cc FFF7FEFF 		bl	I2C_Peripheral_WriteRegister
 454              	.LVL30:
 455 00d0 5B4C     		ldr	r4, .L55+20
 456 00d2 2070     		strb	r0, [r4]
 165:InterruptRoutines.c ****                                                  LIS3DH_CTRL_REG3,
 166:InterruptRoutines.c ****                                                  LIS3DH_CTRL_REG3_INT_ENABLE);
 167:InterruptRoutines.c ****             error = I2C_Peripheral_WriteRegister(LIS3DH_DEVICE_ADDRESS,
ARM GAS  C:\Users\indya\AppData\Local\Temp\ccKs4Gbn.s 			page 12


 457              		.loc 1 167 0
 458 00d4 4022     		movs	r2, #64
 459 00d6 2E21     		movs	r1, #46
 460 00d8 1820     		movs	r0, #24
 461 00da FFF7FEFF 		bl	I2C_Peripheral_WriteRegister
 462              	.LVL31:
 463 00de 2070     		strb	r0, [r4]
 168:InterruptRoutines.c ****                                                  LIS3DH_FIFO_CTRL_REG,
 169:InterruptRoutines.c ****                                                  LIS3DH_FIFO_CTRL_REG_FIFO_MODE);
 170:InterruptRoutines.c ****             error = I2C_Peripheral_WriteRegister(LIS3DH_DEVICE_ADDRESS,
 464              		.loc 1 170 0
 465 00e0 4022     		movs	r2, #64
 466 00e2 2421     		movs	r1, #36
 467 00e4 1820     		movs	r0, #24
 468 00e6 FFF7FEFF 		bl	I2C_Peripheral_WriteRegister
 469              	.LVL32:
 470 00ea 2070     		strb	r0, [r4]
 171:InterruptRoutines.c ****                                                  LIS3DH_CTRL_REG5,
 172:InterruptRoutines.c ****                                                  LIS3DH_CTRL_REG5_FIFO_ENABLE);
 173:InterruptRoutines.c ****             UART_PutString("\r\n");
 471              		.loc 1 173 0
 472 00ec 5548     		ldr	r0, .L55+24
 473 00ee FFF7FEFF 		bl	UART_PutString
 474              	.LVL33:
 174:InterruptRoutines.c ****             if (error == NO_ERROR){UART_PutString("     Acquisition begun\r\n");}
 475              		.loc 1 174 0
 476 00f2 2378     		ldrb	r3, [r4]	@ zero_extendqisi2
 477 00f4 13B9     		cbnz	r3, .L43
 478              		.loc 1 174 0 is_stmt 0 discriminator 1
 479 00f6 5448     		ldr	r0, .L55+28
 480 00f8 FFF7FEFF 		bl	UART_PutString
 481              	.LVL34:
 482              	.L43:
 175:InterruptRoutines.c ****             UART_PutString("\r\n");
 483              		.loc 1 175 0 is_stmt 1
 484 00fc 5148     		ldr	r0, .L55+24
 485 00fe FFF7FEFF 		bl	UART_PutString
 486              	.LVL35:
 176:InterruptRoutines.c ****             PWM_Start();
 487              		.loc 1 176 0
 488 0102 FFF7FEFF 		bl	PWM_Start
 489              	.LVL36:
 177:InterruptRoutines.c ****             if(full_or_empty ==0) LED_ACQUISITION_ON_TOGGLE(); 
 490              		.loc 1 177 0
 491 0106 514B     		ldr	r3, .L55+32
 492 0108 1B78     		ldrb	r3, [r3]	@ zero_extendqisi2
 493 010a 13F0FF0F 		tst	r3, #255
 494 010e 01D1     		bne	.L44
 495              		.loc 1 177 0 is_stmt 0 discriminator 1
 496 0110 FFF7FEFF 		bl	LED_ACQUISITION_ON_TOGGLE
 497              	.LVL37:
 498              	.L44:
 178:InterruptRoutines.c ****             if(full_or_empty == 1) LED_EEPROM_FULL_TOGGLE(); 
 499              		.loc 1 178 0 is_stmt 1
 500 0114 4D4B     		ldr	r3, .L55+32
 501 0116 1B78     		ldrb	r3, [r3]	@ zero_extendqisi2
 502 0118 DBB2     		uxtb	r3, r3
ARM GAS  C:\Users\indya\AppData\Local\Temp\ccKs4Gbn.s 			page 13


 503 011a 012B     		cmp	r3, #1
 504 011c 40F0A481 		bne	.L27
 505              		.loc 1 178 0 is_stmt 0 discriminator 1
 506 0120 FFF7FEFF 		bl	LED_EEPROM_FULL_TOGGLE
 507              	.LVL38:
 508 0124 A0E1     		b	.L27
 509              	.L40:
 179:InterruptRoutines.c ****             break;
 180:InterruptRoutines.c ****             
 181:InterruptRoutines.c ****         case 'S':
 182:InterruptRoutines.c ****         case 's':
 183:InterruptRoutines.c ****             StartAcquisition_flag   = 0;
 510              		.loc 1 183 0 is_stmt 1
 511 0126 0024     		movs	r4, #0
 512 0128 424B     		ldr	r3, .L55+8
 513 012a 1C70     		strb	r4, [r3]
 184:InterruptRoutines.c ****             FLAG_BS                 = 0;
 514              		.loc 1 184 0
 515 012c 424B     		ldr	r3, .L55+12
 516 012e 1C70     		strb	r4, [r3]
 185:InterruptRoutines.c ****             SETUP_BS_CHANGED        = 1;
 517              		.loc 1 185 0
 518 0130 0122     		movs	r2, #1
 519 0132 424B     		ldr	r3, .L55+16
 520 0134 1A70     		strb	r2, [r3]
 186:InterruptRoutines.c ****             Timer_sensor_Stop();
 521              		.loc 1 186 0
 522 0136 FFF7FEFF 		bl	Timer_sensor_Stop
 523              	.LVL39:
 187:InterruptRoutines.c ****             Timer_sensor_ReadStatusRegister();
 524              		.loc 1 187 0
 525 013a FFF7FEFF 		bl	Timer_sensor_ReadStatusRegister
 526              	.LVL40:
 188:InterruptRoutines.c ****             error = I2C_Peripheral_WriteRegister(LIS3DH_DEVICE_ADDRESS,
 527              		.loc 1 188 0
 528 013e 2246     		mov	r2, r4
 529 0140 2221     		movs	r1, #34
 530 0142 1820     		movs	r0, #24
 531 0144 FFF7FEFF 		bl	I2C_Peripheral_WriteRegister
 532              	.LVL41:
 533 0148 3D4D     		ldr	r5, .L55+20
 534 014a 2870     		strb	r0, [r5]
 189:InterruptRoutines.c ****                                                  LIS3DH_CTRL_REG3,
 190:InterruptRoutines.c ****                                                  LIS3DH_CTRL_REG3_INT_DISABLED);
 191:InterruptRoutines.c ****             error = I2C_Peripheral_WriteRegister(LIS3DH_DEVICE_ADDRESS,
 535              		.loc 1 191 0
 536 014c 2246     		mov	r2, r4
 537 014e 2E21     		movs	r1, #46
 538 0150 1820     		movs	r0, #24
 539 0152 FFF7FEFF 		bl	I2C_Peripheral_WriteRegister
 540              	.LVL42:
 541 0156 2870     		strb	r0, [r5]
 192:InterruptRoutines.c ****                                                  LIS3DH_FIFO_CTRL_REG,
 193:InterruptRoutines.c ****                                                  LIS3DH_FIFO_CTRL_REG_BYPASS_MODE);
 194:InterruptRoutines.c ****             error = I2C_Peripheral_WriteRegister(LIS3DH_DEVICE_ADDRESS,
 542              		.loc 1 194 0
 543 0158 2246     		mov	r2, r4
ARM GAS  C:\Users\indya\AppData\Local\Temp\ccKs4Gbn.s 			page 14


 544 015a 2421     		movs	r1, #36
 545 015c 1820     		movs	r0, #24
 546 015e FFF7FEFF 		bl	I2C_Peripheral_WriteRegister
 547              	.LVL43:
 548 0162 2870     		strb	r0, [r5]
 195:InterruptRoutines.c ****                                                  LIS3DH_CTRL_REG5,
 196:InterruptRoutines.c ****                                                  LIS3DH_CTRL_REG5_FIFO_DISABLE);
 197:InterruptRoutines.c ****             UART_PutString("\r\n");
 549              		.loc 1 197 0
 550 0164 3748     		ldr	r0, .L55+24
 551 0166 FFF7FEFF 		bl	UART_PutString
 552              	.LVL44:
 198:InterruptRoutines.c ****             if (error == NO_ERROR){UART_PutString("     Acquisition stopped\r\n");}
 553              		.loc 1 198 0
 554 016a 2B78     		ldrb	r3, [r5]	@ zero_extendqisi2
 555 016c 13B9     		cbnz	r3, .L45
 556              		.loc 1 198 0 is_stmt 0 discriminator 1
 557 016e 3848     		ldr	r0, .L55+36
 558 0170 FFF7FEFF 		bl	UART_PutString
 559              	.LVL45:
 560              	.L45:
 199:InterruptRoutines.c ****             UART_PutString("\r\n");
 561              		.loc 1 199 0 is_stmt 1
 562 0174 3348     		ldr	r0, .L55+24
 563 0176 FFF7FEFF 		bl	UART_PutString
 564              	.LVL46:
 200:InterruptRoutines.c ****             PWM_Stop();
 565              		.loc 1 200 0
 566 017a FFF7FEFF 		bl	PWM_Stop
 567              	.LVL47:
 201:InterruptRoutines.c ****             break;
 568              		.loc 1 201 0
 569 017e 73E1     		b	.L27
 570              	.L36:
 202:InterruptRoutines.c ****             
 203:InterruptRoutines.c ****         case 'F':
 204:InterruptRoutines.c ****         case 'f':
 205:InterruptRoutines.c ****             FLAG_FSR = 1;
 571              		.loc 1 205 0
 572 0180 0122     		movs	r2, #1
 573 0182 344B     		ldr	r3, .L55+40
 574 0184 1A70     		strb	r2, [r3]
 206:InterruptRoutines.c ****             break;
 575              		.loc 1 206 0
 576 0186 6FE1     		b	.L27
 577              	.L39:
 207:InterruptRoutines.c ****             
 208:InterruptRoutines.c ****         case 'P':
 209:InterruptRoutines.c ****         case 'p':
 210:InterruptRoutines.c ****             FLAG_SF = 1;
 578              		.loc 1 210 0
 579 0188 0122     		movs	r2, #1
 580 018a 334B     		ldr	r3, .L55+44
 581 018c 1A70     		strb	r2, [r3]
 211:InterruptRoutines.c ****             break;
 582              		.loc 1 211 0
 583 018e 6BE1     		b	.L27
ARM GAS  C:\Users\indya\AppData\Local\Temp\ccKs4Gbn.s 			page 15


 584              	.L37:
 212:InterruptRoutines.c ****             
 213:InterruptRoutines.c ****         case 'L':
 214:InterruptRoutines.c ****         case 'l':
 215:InterruptRoutines.c ****             FLAG_AS = 1;
 585              		.loc 1 215 0
 586 0190 0122     		movs	r2, #1
 587 0192 324B     		ldr	r3, .L55+48
 588 0194 1A70     		strb	r2, [r3]
 216:InterruptRoutines.c ****             break;
 589              		.loc 1 216 0
 590 0196 67E1     		b	.L27
 591              	.L42:
 217:InterruptRoutines.c ****         
 218:InterruptRoutines.c ****         case 'V':
 219:InterruptRoutines.c ****         case 'v':
 220:InterruptRoutines.c ****             StartAcquisition_flag   = 0;        // Flow flag for acquisition
 592              		.loc 1 220 0
 593 0198 0024     		movs	r4, #0
 594 019a 264B     		ldr	r3, .L55+8
 595 019c 1C70     		strb	r4, [r3]
 221:InterruptRoutines.c ****             StartStream_flag        = 1;        // Flow flag for streaming
 596              		.loc 1 221 0
 597 019e 0126     		movs	r6, #1
 598 01a0 234B     		ldr	r3, .L55+4
 599 01a2 1E70     		strb	r6, [r3]
 222:InterruptRoutines.c ****             
 223:InterruptRoutines.c ****             FLAG_BS                 = 0;        // Start/Stop Condition for summary and setup
 600              		.loc 1 223 0
 601 01a4 244B     		ldr	r3, .L55+12
 602 01a6 1C70     		strb	r4, [r3]
 224:InterruptRoutines.c ****             Timer_sensor_Stop();                // Stop the timer's sensor
 603              		.loc 1 224 0
 604 01a8 FFF7FEFF 		bl	Timer_sensor_Stop
 605              	.LVL48:
 225:InterruptRoutines.c ****             
 226:InterruptRoutines.c ****             Timer_sensor_ReadStatusRegister();  // Reset the timer's sensor
 606              		.loc 1 226 0
 607 01ac FFF7FEFF 		bl	Timer_sensor_ReadStatusRegister
 608              	.LVL49:
 227:InterruptRoutines.c ****             ADC_Stop();                         // Stop ADC
 609              		.loc 1 227 0
 610 01b0 FFF7FEFF 		bl	ADC_Stop
 611              	.LVL50:
 228:InterruptRoutines.c ****             ISR_PB_LOW_Disable();               // Disable ISR_PB_LOW
 612              		.loc 1 228 0
 613 01b4 FFF7FEFF 		bl	ISR_PB_LOW_Disable
 614              	.LVL51:
 229:InterruptRoutines.c ****             ISR_PB_HIGH_Disable();              // Disable ISR_PB_HIGH
 615              		.loc 1 229 0
 616 01b8 FFF7FEFF 		bl	ISR_PB_HIGH_Disable
 617              	.LVL52:
 230:InterruptRoutines.c ****             
 231:InterruptRoutines.c ****             error = I2C_Peripheral_WriteRegister(LIS3DH_DEVICE_ADDRESS,
 618              		.loc 1 231 0
 619 01bc 2246     		mov	r2, r4
 620 01be 2221     		movs	r1, #34
ARM GAS  C:\Users\indya\AppData\Local\Temp\ccKs4Gbn.s 			page 16


 621 01c0 1820     		movs	r0, #24
 622 01c2 FFF7FEFF 		bl	I2C_Peripheral_WriteRegister
 623              	.LVL53:
 624 01c6 1E4D     		ldr	r5, .L55+20
 625 01c8 2870     		strb	r0, [r5]
 232:InterruptRoutines.c ****                                                  LIS3DH_CTRL_REG3,
 233:InterruptRoutines.c ****                                                  LIS3DH_CTRL_REG3_INT_DISABLED);
 234:InterruptRoutines.c ****             error = I2C_Peripheral_WriteRegister(LIS3DH_DEVICE_ADDRESS,
 626              		.loc 1 234 0
 627 01ca 2246     		mov	r2, r4
 628 01cc 2E21     		movs	r1, #46
 629 01ce 1820     		movs	r0, #24
 630 01d0 FFF7FEFF 		bl	I2C_Peripheral_WriteRegister
 631              	.LVL54:
 632 01d4 2870     		strb	r0, [r5]
 235:InterruptRoutines.c ****                                                  LIS3DH_FIFO_CTRL_REG,
 236:InterruptRoutines.c ****                                                  LIS3DH_FIFO_CTRL_REG_BYPASS_MODE);
 237:InterruptRoutines.c ****             error = I2C_Peripheral_WriteRegister(LIS3DH_DEVICE_ADDRESS,
 633              		.loc 1 237 0
 634 01d6 2246     		mov	r2, r4
 635 01d8 2421     		movs	r1, #36
 636 01da 1820     		movs	r0, #24
 637 01dc FFF7FEFF 		bl	I2C_Peripheral_WriteRegister
 638              	.LVL55:
 639 01e0 2870     		strb	r0, [r5]
 238:InterruptRoutines.c ****                                                  LIS3DH_CTRL_REG5,
 239:InterruptRoutines.c ****                                                  LIS3DH_CTRL_REG5_FIFO_DISABLE);
 240:InterruptRoutines.c ****             pin_LED_EXT_Write(LED_EXT_ON);
 640              		.loc 1 240 0
 641 01e2 3046     		mov	r0, r6
 642 01e4 FFF7FEFF 		bl	pin_LED_EXT_Write
 643              	.LVL56:
 241:InterruptRoutines.c ****             PWM_Stop();
 644              		.loc 1 241 0
 645 01e8 FFF7FEFF 		bl	PWM_Stop
 646              	.LVL57:
 242:InterruptRoutines.c ****             break;
 647              		.loc 1 242 0
 648 01ec 3CE1     		b	.L27
 649              	.L41:
 243:InterruptRoutines.c ****             
 244:InterruptRoutines.c ****         case 'U':
 245:InterruptRoutines.c ****         case 'u':
 246:InterruptRoutines.c ****             StartStream_flag  = 0;              // Flow flag for streaming
 650              		.loc 1 246 0
 651 01ee 0024     		movs	r4, #0
 652 01f0 0F4B     		ldr	r3, .L55+4
 653 01f2 1C70     		strb	r4, [r3]
 247:InterruptRoutines.c ****             ADC_Start();                        // Start ADC
 654              		.loc 1 247 0
 655 01f4 FFF7FEFF 		bl	ADC_Start
 656              	.LVL58:
 248:InterruptRoutines.c ****             ISR_PB_LOW_Enable();                // Enable ISR_PB_LOW
 657              		.loc 1 248 0
 658 01f8 FFF7FEFF 		bl	ISR_PB_LOW_Enable
 659              	.LVL59:
 249:InterruptRoutines.c ****             ISR_PB_HIGH_Enable();               // Enable ISR_PB_HIGH
ARM GAS  C:\Users\indya\AppData\Local\Temp\ccKs4Gbn.s 			page 17


 660              		.loc 1 249 0
 661 01fc FFF7FEFF 		bl	ISR_PB_HIGH_Enable
 662              	.LVL60:
 250:InterruptRoutines.c ****             pin_LED_EXT_Write(LED_EXT_OFF); 
 663              		.loc 1 250 0
 664 0200 2046     		mov	r0, r4
 665 0202 FFF7FEFF 		bl	pin_LED_EXT_Write
 666              	.LVL61:
 251:InterruptRoutines.c ****             break;
 667              		.loc 1 251 0
 668 0206 2FE1     		b	.L27
 669              	.L28:
 252:InterruptRoutines.c ****         
 253:InterruptRoutines.c ****         case '0':
 254:InterruptRoutines.c ****             if(FLAG_AS==1){
 670              		.loc 1 254 0
 671 0208 144B     		ldr	r3, .L55+48
 672 020a 1B78     		ldrb	r3, [r3]	@ zero_extendqisi2
 673 020c DBB2     		uxtb	r3, r3
 674 020e 012B     		cmp	r3, #1
 675 0210 40F02A81 		bne	.L27
 255:InterruptRoutines.c ****                 FLAG_AS          = 0;
 676              		.loc 1 255 0
 677 0214 0022     		movs	r2, #0
 678 0216 114B     		ldr	r3, .L55+48
 679 0218 1A70     		strb	r2, [r3]
 256:InterruptRoutines.c ****                 OPTION_AS        = 1;
 680              		.loc 1 256 0
 681 021a 0120     		movs	r0, #1
 682 021c 104B     		ldr	r3, .L55+52
 683 021e 1870     		strb	r0, [r3]
 257:InterruptRoutines.c ****                 SETUP_AS_CHANGED = 1;
 684              		.loc 1 257 0
 685 0220 104B     		ldr	r3, .L55+56
 686 0222 1870     		strb	r0, [r3]
 258:InterruptRoutines.c ****                 AMux_Select(1);                 // Multiplexer set on LDR sensor               
 687              		.loc 1 258 0
 688 0224 FFF7FEFF 		bl	AMux_Select
 689              	.LVL62:
 690 0228 1EE1     		b	.L27
 691              	.L56:
 692 022a 00BF     		.align	2
 693              	.L55:
 694 022c 00000000 		.word	ch_receveid
 695 0230 00000000 		.word	StartStream_flag
 696 0234 00000000 		.word	StartAcquisition_flag
 697 0238 00000000 		.word	FLAG_BS
 698 023c 00000000 		.word	SETUP_BS_CHANGED
 699 0240 00000000 		.word	error
 700 0244 00000000 		.word	.LC0
 701 0248 04000000 		.word	.LC1
 702 024c 00000000 		.word	full_or_empty
 703 0250 20000000 		.word	.LC2
 704 0254 00000000 		.word	FLAG_FSR
 705 0258 00000000 		.word	FLAG_SF
 706 025c 00000000 		.word	FLAG_AS
 707 0260 00000000 		.word	OPTION_AS
ARM GAS  C:\Users\indya\AppData\Local\Temp\ccKs4Gbn.s 			page 18


 708 0264 00000000 		.word	SETUP_AS_CHANGED
 709              	.L30:
 259:InterruptRoutines.c ****             }
 260:InterruptRoutines.c ****             break;
 261:InterruptRoutines.c ****             
 262:InterruptRoutines.c ****         case '1':
 263:InterruptRoutines.c ****             if(FLAG_FSR==1 && FLAG_SF==0 && FLAG_AS==0){
 710              		.loc 1 263 0
 711 0268 964B     		ldr	r3, .L57
 712 026a 1B78     		ldrb	r3, [r3]	@ zero_extendqisi2
 713 026c DBB2     		uxtb	r3, r3
 714 026e 012B     		cmp	r3, #1
 715 0270 17D1     		bne	.L46
 716              		.loc 1 263 0 is_stmt 0 discriminator 1
 717 0272 954B     		ldr	r3, .L57+4
 718 0274 1B78     		ldrb	r3, [r3]	@ zero_extendqisi2
 719 0276 13F0FF0F 		tst	r3, #255
 720 027a 12D1     		bne	.L46
 721              		.loc 1 263 0 discriminator 2
 722 027c 934B     		ldr	r3, .L57+8
 723 027e 1B78     		ldrb	r3, [r3]	@ zero_extendqisi2
 724 0280 13F0FF0F 		tst	r3, #255
 725 0284 0DD1     		bne	.L46
 264:InterruptRoutines.c ****                 FLAG_FSR            = 0;
 726              		.loc 1 264 0 is_stmt 1
 727 0286 0022     		movs	r2, #0
 728 0288 8E4B     		ldr	r3, .L57
 729 028a 1A70     		strb	r2, [r3]
 265:InterruptRoutines.c ****                 OPTION_FSR          = 1;
 730              		.loc 1 265 0
 731 028c 0123     		movs	r3, #1
 732 028e 904A     		ldr	r2, .L57+12
 733 0290 1370     		strb	r3, [r2]
 266:InterruptRoutines.c ****                 SETUP_FSR           = LIS3DH_CTRL_REG4_FSR_2G;
 734              		.loc 1 266 0
 735 0292 8021     		movs	r1, #128
 736 0294 8F4A     		ldr	r2, .L57+16
 737 0296 1170     		strb	r1, [r2]
 267:InterruptRoutines.c ****                 SETUP_FSR_CHANGED   = 1;
 738              		.loc 1 267 0
 739 0298 8F4A     		ldr	r2, .L57+20
 740 029a 1370     		strb	r3, [r2]
 268:InterruptRoutines.c ****                 Sensitivity         = 4;
 741              		.loc 1 268 0
 742 029c 0422     		movs	r2, #4
 743 029e 8F4B     		ldr	r3, .L57+24
 744 02a0 1A80     		strh	r2, [r3]	@ movhi
 745              	.L46:
 269:InterruptRoutines.c ****             }
 270:InterruptRoutines.c ****             if(FLAG_FSR==0 && FLAG_SF==1 && FLAG_AS==0){
 746              		.loc 1 270 0
 747 02a2 884B     		ldr	r3, .L57
 748 02a4 1B78     		ldrb	r3, [r3]	@ zero_extendqisi2
 749 02a6 13F0FF0F 		tst	r3, #255
 750 02aa 18D1     		bne	.L47
 751              		.loc 1 270 0 is_stmt 0 discriminator 1
 752 02ac 864B     		ldr	r3, .L57+4
ARM GAS  C:\Users\indya\AppData\Local\Temp\ccKs4Gbn.s 			page 19


 753 02ae 1B78     		ldrb	r3, [r3]	@ zero_extendqisi2
 754 02b0 DBB2     		uxtb	r3, r3
 755 02b2 012B     		cmp	r3, #1
 756 02b4 13D1     		bne	.L47
 757              		.loc 1 270 0 discriminator 2
 758 02b6 854B     		ldr	r3, .L57+8
 759 02b8 1B78     		ldrb	r3, [r3]	@ zero_extendqisi2
 760 02ba 13F0FF0F 		tst	r3, #255
 761 02be 0ED1     		bne	.L47
 271:InterruptRoutines.c ****                 FLAG_SF            = 0;
 762              		.loc 1 271 0 is_stmt 1
 763 02c0 0022     		movs	r2, #0
 764 02c2 814B     		ldr	r3, .L57+4
 765 02c4 1A70     		strb	r2, [r3]
 272:InterruptRoutines.c ****                 OPTION_SF          = 1;
 766              		.loc 1 272 0
 767 02c6 0123     		movs	r3, #1
 768 02c8 854A     		ldr	r2, .L57+28
 769 02ca 1370     		strb	r3, [r2]
 273:InterruptRoutines.c ****                 SETUP_SF           = LIS3DH_CTRL_REG1_SF_1HZ;    
 770              		.loc 1 273 0
 771 02cc 1721     		movs	r1, #23
 772 02ce 854A     		ldr	r2, .L57+32
 773 02d0 1170     		strb	r1, [r2]
 274:InterruptRoutines.c ****                 SETUP_SF_CHANGED   = 1;
 774              		.loc 1 274 0
 775 02d2 854A     		ldr	r2, .L57+36
 776 02d4 1370     		strb	r3, [r2]
 275:InterruptRoutines.c ****                 CHANGE_ADC_SF(1000);
 777              		.loc 1 275 0
 778 02d6 4FF47A70 		mov	r0, #1000
 779 02da FFF7FEFF 		bl	CHANGE_ADC_SF
 780              	.LVL63:
 781              	.L47:
 276:InterruptRoutines.c ****             }
 277:InterruptRoutines.c ****             if(FLAG_FSR==0 && FLAG_SF==0 && FLAG_AS==1){ 
 782              		.loc 1 277 0
 783 02de 794B     		ldr	r3, .L57
 784 02e0 1B78     		ldrb	r3, [r3]	@ zero_extendqisi2
 785 02e2 13F0FF0F 		tst	r3, #255
 786 02e6 40F0BF80 		bne	.L27
 787              		.loc 1 277 0 is_stmt 0 discriminator 1
 788 02ea 774B     		ldr	r3, .L57+4
 789 02ec 1B78     		ldrb	r3, [r3]	@ zero_extendqisi2
 790 02ee 13F0FF0F 		tst	r3, #255
 791 02f2 40F0B980 		bne	.L27
 792              		.loc 1 277 0 discriminator 2
 793 02f6 754B     		ldr	r3, .L57+8
 794 02f8 1B78     		ldrb	r3, [r3]	@ zero_extendqisi2
 795 02fa DBB2     		uxtb	r3, r3
 796 02fc 012B     		cmp	r3, #1
 797 02fe 40F0B380 		bne	.L27
 278:InterruptRoutines.c ****                 FLAG_AS   = 0;
 798              		.loc 1 278 0 is_stmt 1
 799 0302 0020     		movs	r0, #0
 800 0304 714B     		ldr	r3, .L57+8
 801 0306 1870     		strb	r0, [r3]
ARM GAS  C:\Users\indya\AppData\Local\Temp\ccKs4Gbn.s 			page 20


 279:InterruptRoutines.c ****                 OPTION_AS = 2;
 802              		.loc 1 279 0
 803 0308 0222     		movs	r2, #2
 804 030a 784B     		ldr	r3, .L57+40
 805 030c 1A70     		strb	r2, [r3]
 280:InterruptRoutines.c ****                 SETUP_AS_CHANGED = 1;
 806              		.loc 1 280 0
 807 030e 0122     		movs	r2, #1
 808 0310 774B     		ldr	r3, .L57+44
 809 0312 1A70     		strb	r2, [r3]
 281:InterruptRoutines.c ****                 AMux_Select(0);   // POT      
 810              		.loc 1 281 0
 811 0314 FFF7FEFF 		bl	AMux_Select
 812              	.LVL64:
 813 0318 A6E0     		b	.L27
 814              	.L31:
 282:InterruptRoutines.c ****             }
 283:InterruptRoutines.c ****             break;
 284:InterruptRoutines.c ****         
 285:InterruptRoutines.c ****         case '2':
 286:InterruptRoutines.c ****             if(FLAG_FSR==1 && FLAG_SF==0 && FLAG_AS==0){
 815              		.loc 1 286 0
 816 031a 6A4B     		ldr	r3, .L57
 817 031c 1B78     		ldrb	r3, [r3]	@ zero_extendqisi2
 818 031e DBB2     		uxtb	r3, r3
 819 0320 012B     		cmp	r3, #1
 820 0322 18D1     		bne	.L48
 821              		.loc 1 286 0 is_stmt 0 discriminator 1
 822 0324 684B     		ldr	r3, .L57+4
 823 0326 1B78     		ldrb	r3, [r3]	@ zero_extendqisi2
 824 0328 13F0FF0F 		tst	r3, #255
 825 032c 13D1     		bne	.L48
 826              		.loc 1 286 0 discriminator 2
 827 032e 674B     		ldr	r3, .L57+8
 828 0330 1B78     		ldrb	r3, [r3]	@ zero_extendqisi2
 829 0332 13F0FF0F 		tst	r3, #255
 830 0336 0ED1     		bne	.L48
 287:InterruptRoutines.c ****                 FLAG_FSR            = 0;
 831              		.loc 1 287 0 is_stmt 1
 832 0338 0022     		movs	r2, #0
 833 033a 624B     		ldr	r3, .L57
 834 033c 1A70     		strb	r2, [r3]
 288:InterruptRoutines.c ****                 OPTION_FSR          = 2;
 835              		.loc 1 288 0
 836 033e 0222     		movs	r2, #2
 837 0340 634B     		ldr	r3, .L57+12
 838 0342 1A70     		strb	r2, [r3]
 289:InterruptRoutines.c ****                 SETUP_FSR           = LIS3DH_CTRL_REG4_FSR_4G;
 839              		.loc 1 289 0
 840 0344 9022     		movs	r2, #144
 841 0346 634B     		ldr	r3, .L57+16
 842 0348 1A70     		strb	r2, [r3]
 290:InterruptRoutines.c ****                 SETUP_FSR_CHANGED   = 1;
 843              		.loc 1 290 0
 844 034a 0122     		movs	r2, #1
 845 034c 624B     		ldr	r3, .L57+20
 846 034e 1A70     		strb	r2, [r3]
ARM GAS  C:\Users\indya\AppData\Local\Temp\ccKs4Gbn.s 			page 21


 291:InterruptRoutines.c ****                 Sensitivity         = 8;
 847              		.loc 1 291 0
 848 0350 0822     		movs	r2, #8
 849 0352 624B     		ldr	r3, .L57+24
 850 0354 1A80     		strh	r2, [r3]	@ movhi
 851              	.L48:
 292:InterruptRoutines.c ****             }
 293:InterruptRoutines.c ****             if(FLAG_FSR==0 && FLAG_SF==1 && FLAG_AS==0){
 852              		.loc 1 293 0
 853 0356 5B4B     		ldr	r3, .L57
 854 0358 1B78     		ldrb	r3, [r3]	@ zero_extendqisi2
 855 035a 13F0FF0F 		tst	r3, #255
 856 035e 40F08380 		bne	.L27
 857              		.loc 1 293 0 is_stmt 0 discriminator 1
 858 0362 594B     		ldr	r3, .L57+4
 859 0364 1B78     		ldrb	r3, [r3]	@ zero_extendqisi2
 860 0366 DBB2     		uxtb	r3, r3
 861 0368 012B     		cmp	r3, #1
 862 036a 7DD1     		bne	.L27
 863              		.loc 1 293 0 discriminator 2
 864 036c 574B     		ldr	r3, .L57+8
 865 036e 1B78     		ldrb	r3, [r3]	@ zero_extendqisi2
 866 0370 13F0FF0F 		tst	r3, #255
 867 0374 78D1     		bne	.L27
 294:InterruptRoutines.c ****                 FLAG_SF            = 0;
 868              		.loc 1 294 0 is_stmt 1
 869 0376 0022     		movs	r2, #0
 870 0378 534B     		ldr	r3, .L57+4
 871 037a 1A70     		strb	r2, [r3]
 295:InterruptRoutines.c ****                 OPTION_SF          = 2;
 872              		.loc 1 295 0
 873 037c 0222     		movs	r2, #2
 874 037e 584B     		ldr	r3, .L57+28
 875 0380 1A70     		strb	r2, [r3]
 296:InterruptRoutines.c ****                 SETUP_SF           = LIS3DH_CTRL_REG1_SF_10HZ;
 876              		.loc 1 296 0
 877 0382 2722     		movs	r2, #39
 878 0384 574B     		ldr	r3, .L57+32
 879 0386 1A70     		strb	r2, [r3]
 297:InterruptRoutines.c ****                 SETUP_SF_CHANGED   = 1;
 880              		.loc 1 297 0
 881 0388 0122     		movs	r2, #1
 882 038a 574B     		ldr	r3, .L57+36
 883 038c 1A70     		strb	r2, [r3]
 298:InterruptRoutines.c ****                 CHANGE_ADC_SF(100);
 884              		.loc 1 298 0
 885 038e 6420     		movs	r0, #100
 886 0390 FFF7FEFF 		bl	CHANGE_ADC_SF
 887              	.LVL65:
 888 0394 68E0     		b	.L27
 889              	.L32:
 299:InterruptRoutines.c ****             }
 300:InterruptRoutines.c ****             break;
 301:InterruptRoutines.c ****             
 302:InterruptRoutines.c ****         case '3':
 303:InterruptRoutines.c ****             if(FLAG_FSR==1 && FLAG_SF==0){
 890              		.loc 1 303 0
ARM GAS  C:\Users\indya\AppData\Local\Temp\ccKs4Gbn.s 			page 22


 891 0396 4B4B     		ldr	r3, .L57
 892 0398 1B78     		ldrb	r3, [r3]	@ zero_extendqisi2
 893 039a DBB2     		uxtb	r3, r3
 894 039c 012B     		cmp	r3, #1
 895 039e 13D1     		bne	.L49
 896              		.loc 1 303 0 is_stmt 0 discriminator 1
 897 03a0 494B     		ldr	r3, .L57+4
 898 03a2 1B78     		ldrb	r3, [r3]	@ zero_extendqisi2
 899 03a4 13F0FF0F 		tst	r3, #255
 900 03a8 0ED1     		bne	.L49
 304:InterruptRoutines.c ****                 FLAG_FSR            = 0;
 901              		.loc 1 304 0 is_stmt 1
 902 03aa 0022     		movs	r2, #0
 903 03ac 454B     		ldr	r3, .L57
 904 03ae 1A70     		strb	r2, [r3]
 305:InterruptRoutines.c ****                 OPTION_FSR          = 3;
 905              		.loc 1 305 0
 906 03b0 0322     		movs	r2, #3
 907 03b2 474B     		ldr	r3, .L57+12
 908 03b4 1A70     		strb	r2, [r3]
 306:InterruptRoutines.c ****                 SETUP_FSR           = LIS3DH_CTRL_REG4_FSR_8G;
 909              		.loc 1 306 0
 910 03b6 A022     		movs	r2, #160
 911 03b8 464B     		ldr	r3, .L57+16
 912 03ba 1A70     		strb	r2, [r3]
 307:InterruptRoutines.c ****                 SETUP_FSR_CHANGED   = 1;
 913              		.loc 1 307 0
 914 03bc 0122     		movs	r2, #1
 915 03be 464B     		ldr	r3, .L57+20
 916 03c0 1A70     		strb	r2, [r3]
 308:InterruptRoutines.c ****                 Sensitivity         = 16;
 917              		.loc 1 308 0
 918 03c2 1022     		movs	r2, #16
 919 03c4 454B     		ldr	r3, .L57+24
 920 03c6 1A80     		strh	r2, [r3]	@ movhi
 921              	.L49:
 309:InterruptRoutines.c ****             }
 310:InterruptRoutines.c ****             if(FLAG_FSR==0 && FLAG_SF==1){
 922              		.loc 1 310 0
 923 03c8 3E4B     		ldr	r3, .L57
 924 03ca 1B78     		ldrb	r3, [r3]	@ zero_extendqisi2
 925 03cc 13F0FF0F 		tst	r3, #255
 926 03d0 4AD1     		bne	.L27
 927              		.loc 1 310 0 is_stmt 0 discriminator 1
 928 03d2 3D4B     		ldr	r3, .L57+4
 929 03d4 1B78     		ldrb	r3, [r3]	@ zero_extendqisi2
 930 03d6 DBB2     		uxtb	r3, r3
 931 03d8 012B     		cmp	r3, #1
 932 03da 45D1     		bne	.L27
 311:InterruptRoutines.c ****                 FLAG_SF            = 0;
 933              		.loc 1 311 0 is_stmt 1
 934 03dc 0022     		movs	r2, #0
 935 03de 3A4B     		ldr	r3, .L57+4
 936 03e0 1A70     		strb	r2, [r3]
 312:InterruptRoutines.c ****                 OPTION_SF          = 3;
 937              		.loc 1 312 0
 938 03e2 0322     		movs	r2, #3
ARM GAS  C:\Users\indya\AppData\Local\Temp\ccKs4Gbn.s 			page 23


 939 03e4 3E4B     		ldr	r3, .L57+28
 940 03e6 1A70     		strb	r2, [r3]
 313:InterruptRoutines.c ****                 SETUP_SF           = LIS3DH_CTRL_REG1_SF_25HZ;
 941              		.loc 1 313 0
 942 03e8 3722     		movs	r2, #55
 943 03ea 3E4B     		ldr	r3, .L57+32
 944 03ec 1A70     		strb	r2, [r3]
 314:InterruptRoutines.c ****                 SETUP_SF_CHANGED   = 1;
 945              		.loc 1 314 0
 946 03ee 0122     		movs	r2, #1
 947 03f0 3D4B     		ldr	r3, .L57+36
 948 03f2 1A70     		strb	r2, [r3]
 315:InterruptRoutines.c ****                 CHANGE_ADC_SF(40);
 949              		.loc 1 315 0
 950 03f4 2820     		movs	r0, #40
 951 03f6 FFF7FEFF 		bl	CHANGE_ADC_SF
 952              	.LVL66:
 953 03fa 35E0     		b	.L27
 954              	.L33:
 316:InterruptRoutines.c ****             }
 317:InterruptRoutines.c ****             break;
 318:InterruptRoutines.c ****             
 319:InterruptRoutines.c ****         case '4':
 320:InterruptRoutines.c ****             if(FLAG_FSR==1 && FLAG_SF==0){ 
 955              		.loc 1 320 0
 956 03fc 314B     		ldr	r3, .L57
 957 03fe 1B78     		ldrb	r3, [r3]	@ zero_extendqisi2
 958 0400 DBB2     		uxtb	r3, r3
 959 0402 012B     		cmp	r3, #1
 960 0404 13D1     		bne	.L50
 961              		.loc 1 320 0 is_stmt 0 discriminator 1
 962 0406 304B     		ldr	r3, .L57+4
 963 0408 1B78     		ldrb	r3, [r3]	@ zero_extendqisi2
 964 040a 13F0FF0F 		tst	r3, #255
 965 040e 0ED1     		bne	.L50
 321:InterruptRoutines.c ****                 FLAG_FSR            = 0;
 966              		.loc 1 321 0 is_stmt 1
 967 0410 0022     		movs	r2, #0
 968 0412 2C4B     		ldr	r3, .L57
 969 0414 1A70     		strb	r2, [r3]
 322:InterruptRoutines.c ****                 OPTION_FSR          = 4;
 970              		.loc 1 322 0
 971 0416 0422     		movs	r2, #4
 972 0418 2D4B     		ldr	r3, .L57+12
 973 041a 1A70     		strb	r2, [r3]
 323:InterruptRoutines.c ****                 SETUP_FSR           = LIS3DH_CTRL_REG4_FSR_16G;
 974              		.loc 1 323 0
 975 041c B022     		movs	r2, #176
 976 041e 2D4B     		ldr	r3, .L57+16
 977 0420 1A70     		strb	r2, [r3]
 324:InterruptRoutines.c ****                 SETUP_FSR_CHANGED   = 1;
 978              		.loc 1 324 0
 979 0422 0122     		movs	r2, #1
 980 0424 2C4B     		ldr	r3, .L57+20
 981 0426 1A70     		strb	r2, [r3]
 325:InterruptRoutines.c ****                 Sensitivity         = 48;
 982              		.loc 1 325 0
ARM GAS  C:\Users\indya\AppData\Local\Temp\ccKs4Gbn.s 			page 24


 983 0428 3022     		movs	r2, #48
 984 042a 2C4B     		ldr	r3, .L57+24
 985 042c 1A80     		strh	r2, [r3]	@ movhi
 986              	.L50:
 326:InterruptRoutines.c ****             }
 327:InterruptRoutines.c ****             if(FLAG_FSR==0 && FLAG_SF==1){ 
 987              		.loc 1 327 0
 988 042e 254B     		ldr	r3, .L57
 989 0430 1B78     		ldrb	r3, [r3]	@ zero_extendqisi2
 990 0432 13F0FF0F 		tst	r3, #255
 991 0436 17D1     		bne	.L27
 992              		.loc 1 327 0 is_stmt 0 discriminator 1
 993 0438 234B     		ldr	r3, .L57+4
 994 043a 1B78     		ldrb	r3, [r3]	@ zero_extendqisi2
 995 043c DBB2     		uxtb	r3, r3
 996 043e 012B     		cmp	r3, #1
 997 0440 12D1     		bne	.L27
 328:InterruptRoutines.c ****                 FLAG_SF            = 0;
 998              		.loc 1 328 0 is_stmt 1
 999 0442 0022     		movs	r2, #0
 1000 0444 204B     		ldr	r3, .L57+4
 1001 0446 1A70     		strb	r2, [r3]
 329:InterruptRoutines.c ****                 OPTION_SF          = 4;
 1002              		.loc 1 329 0
 1003 0448 0422     		movs	r2, #4
 1004 044a 254B     		ldr	r3, .L57+28
 1005 044c 1A70     		strb	r2, [r3]
 330:InterruptRoutines.c ****                 SETUP_SF           = LIS3DH_CTRL_REG1_SF_50HZ;
 1006              		.loc 1 330 0
 1007 044e 4722     		movs	r2, #71
 1008 0450 244B     		ldr	r3, .L57+32
 1009 0452 1A70     		strb	r2, [r3]
 331:InterruptRoutines.c ****                 SETUP_SF_CHANGED   = 1;
 1010              		.loc 1 331 0
 1011 0454 0122     		movs	r2, #1
 1012 0456 244B     		ldr	r3, .L57+36
 1013 0458 1A70     		strb	r2, [r3]
 332:InterruptRoutines.c ****                 CHANGE_ADC_SF(20);
 1014              		.loc 1 332 0
 1015 045a 1420     		movs	r0, #20
 1016 045c FFF7FEFF 		bl	CHANGE_ADC_SF
 1017              	.LVL67:
 1018 0460 02E0     		b	.L27
 1019              	.L38:
 333:InterruptRoutines.c ****             }
 334:InterruptRoutines.c ****             break;
 335:InterruptRoutines.c ****          
 336:InterruptRoutines.c ****         case 'O':
 337:InterruptRoutines.c ****         case 'o':
 338:InterruptRoutines.c ****             summary_ready = 1;
 1020              		.loc 1 338 0
 1021 0462 0122     		movs	r2, #1
 1022 0464 234B     		ldr	r3, .L57+48
 1023 0466 1A70     		strb	r2, [r3]
 1024              	.L27:
 339:InterruptRoutines.c ****             break;
 340:InterruptRoutines.c ****             
ARM GAS  C:\Users\indya\AppData\Local\Temp\ccKs4Gbn.s 			page 25


 341:InterruptRoutines.c ****         default:
 342:InterruptRoutines.c ****             break;    
 343:InterruptRoutines.c ****     }
 344:InterruptRoutines.c ****     
 345:InterruptRoutines.c ****     /*******************************/
 346:InterruptRoutines.c ****     /*     INTEGRITY CONTROL       */
 347:InterruptRoutines.c ****     /*******************************/
 348:InterruptRoutines.c ****     
 349:InterruptRoutines.c ****     if(FLAG_FSR==1 && FLAG_SF==1){
 1025              		.loc 1 349 0
 1026 0468 164B     		ldr	r3, .L57
 1027 046a 1B78     		ldrb	r3, [r3]	@ zero_extendqisi2
 1028 046c DBB2     		uxtb	r3, r3
 1029 046e 012B     		cmp	r3, #1
 1030 0470 09D1     		bne	.L51
 1031              		.loc 1 349 0 is_stmt 0 discriminator 1
 1032 0472 154B     		ldr	r3, .L57+4
 1033 0474 1B78     		ldrb	r3, [r3]	@ zero_extendqisi2
 1034 0476 DBB2     		uxtb	r3, r3
 1035 0478 012B     		cmp	r3, #1
 1036 047a 04D1     		bne	.L51
 350:InterruptRoutines.c ****         FLAG_FSR=0;
 1037              		.loc 1 350 0 is_stmt 1
 1038 047c 0023     		movs	r3, #0
 1039 047e 114A     		ldr	r2, .L57
 1040 0480 1370     		strb	r3, [r2]
 351:InterruptRoutines.c ****         FLAG_SF=0;
 1041              		.loc 1 351 0
 1042 0482 114A     		ldr	r2, .L57+4
 1043 0484 1370     		strb	r3, [r2]
 1044              	.L51:
 352:InterruptRoutines.c ****     }
 353:InterruptRoutines.c ****     
 354:InterruptRoutines.c ****     if(FLAG_AS==1 && FLAG_SF==1){
 1045              		.loc 1 354 0
 1046 0486 114B     		ldr	r3, .L57+8
 1047 0488 1B78     		ldrb	r3, [r3]	@ zero_extendqisi2
 1048 048a DBB2     		uxtb	r3, r3
 1049 048c 012B     		cmp	r3, #1
 1050 048e 09D1     		bne	.L52
 1051              		.loc 1 354 0 is_stmt 0 discriminator 1
 1052 0490 0D4B     		ldr	r3, .L57+4
 1053 0492 1B78     		ldrb	r3, [r3]	@ zero_extendqisi2
 1054 0494 DBB2     		uxtb	r3, r3
 1055 0496 012B     		cmp	r3, #1
 1056 0498 04D1     		bne	.L52
 355:InterruptRoutines.c ****         FLAG_AS=0;
 1057              		.loc 1 355 0 is_stmt 1
 1058 049a 0023     		movs	r3, #0
 1059 049c 0B4A     		ldr	r2, .L57+8
 1060 049e 1370     		strb	r3, [r2]
 356:InterruptRoutines.c ****         FLAG_SF=0;
 1061              		.loc 1 356 0
 1062 04a0 094A     		ldr	r2, .L57+4
 1063 04a2 1370     		strb	r3, [r2]
 1064              	.L52:
 357:InterruptRoutines.c ****     }
ARM GAS  C:\Users\indya\AppData\Local\Temp\ccKs4Gbn.s 			page 26


 358:InterruptRoutines.c ****     
 359:InterruptRoutines.c ****     if(FLAG_AS==1 && FLAG_FSR==1){
 1065              		.loc 1 359 0
 1066 04a4 094B     		ldr	r3, .L57+8
 1067 04a6 1B78     		ldrb	r3, [r3]	@ zero_extendqisi2
 1068 04a8 DBB2     		uxtb	r3, r3
 1069 04aa 012B     		cmp	r3, #1
 1070 04ac 09D1     		bne	.L26
 1071              		.loc 1 359 0 is_stmt 0 discriminator 1
 1072 04ae 054B     		ldr	r3, .L57
 1073 04b0 1B78     		ldrb	r3, [r3]	@ zero_extendqisi2
 1074 04b2 DBB2     		uxtb	r3, r3
 1075 04b4 012B     		cmp	r3, #1
 1076 04b6 04D1     		bne	.L26
 360:InterruptRoutines.c ****         FLAG_AS=0;
 1077              		.loc 1 360 0 is_stmt 1
 1078 04b8 0023     		movs	r3, #0
 1079 04ba 044A     		ldr	r2, .L57+8
 1080 04bc 1370     		strb	r3, [r2]
 361:InterruptRoutines.c ****         FLAG_FSR=0;
 1081              		.loc 1 361 0
 1082 04be 014A     		ldr	r2, .L57
 1083 04c0 1370     		strb	r3, [r2]
 1084              	.L26:
 1085 04c2 70BD     		pop	{r4, r5, r6, pc}
 1086              	.L58:
 1087              		.align	2
 1088              	.L57:
 1089 04c4 00000000 		.word	FLAG_FSR
 1090 04c8 00000000 		.word	FLAG_SF
 1091 04cc 00000000 		.word	FLAG_AS
 1092 04d0 00000000 		.word	OPTION_FSR
 1093 04d4 00000000 		.word	SETUP_FSR
 1094 04d8 00000000 		.word	SETUP_FSR_CHANGED
 1095 04dc 00000000 		.word	Sensitivity
 1096 04e0 00000000 		.word	OPTION_SF
 1097 04e4 00000000 		.word	SETUP_SF
 1098 04e8 00000000 		.word	SETUP_SF_CHANGED
 1099 04ec 00000000 		.word	OPTION_AS
 1100 04f0 00000000 		.word	SETUP_AS_CHANGED
 1101 04f4 00000000 		.word	summary_ready
 1102              		.cfi_endproc
 1103              	.LFE69:
 1104              		.size	Custom_ISR_RX, .-Custom_ISR_RX
 1105              		.section	.text.ISR_PB_LOW,"ax",%progbits
 1106              		.align	2
 1107              		.global	ISR_PB_LOW
 1108              		.thumb
 1109              		.thumb_func
 1110              		.type	ISR_PB_LOW, %function
 1111              	ISR_PB_LOW:
 1112              	.LFB70:
 362:InterruptRoutines.c ****     }
 363:InterruptRoutines.c ****     
 364:InterruptRoutines.c **** }
 365:InterruptRoutines.c **** 
 366:InterruptRoutines.c **** /**************************************************************************************************
ARM GAS  C:\Users\indya\AppData\Local\Temp\ccKs4Gbn.s 			page 27


 367:InterruptRoutines.c **** /*                                             PUSH BUTTON INTERRUPTs                              
 368:InterruptRoutines.c **** /**************************************************************************************************
 369:InterruptRoutines.c **** 
 370:InterruptRoutines.c **** CY_ISR(ISR_PB_LOW){  
 1113              		.loc 1 370 0
 1114              		.cfi_startproc
 1115              		@ args = 0, pretend = 0, frame = 0
 1116              		@ frame_needed = 0, uses_anonymous_args = 0
 1117 0000 08B5     		push	{r3, lr}
 1118              		.cfi_def_cfa_offset 8
 1119              		.cfi_offset 3, -8
 1120              		.cfi_offset 14, -4
 371:InterruptRoutines.c ****     PB_PRESSED = 1;     // flag 1 if the button is pressed
 1121              		.loc 1 371 0
 1122 0002 0122     		movs	r2, #1
 1123 0004 024B     		ldr	r3, .L61
 1124 0006 1A70     		strb	r2, [r3]
 372:InterruptRoutines.c ****     Timer_PB_Start();   // timer start
 1125              		.loc 1 372 0
 1126 0008 FFF7FEFF 		bl	Timer_PB_Start
 1127              	.LVL68:
 1128 000c 08BD     		pop	{r3, pc}
 1129              	.L62:
 1130 000e 00BF     		.align	2
 1131              	.L61:
 1132 0010 00000000 		.word	.LANCHOR0
 1133              		.cfi_endproc
 1134              	.LFE70:
 1135              		.size	ISR_PB_LOW, .-ISR_PB_LOW
 1136              		.section	.text.ISR_PB_HIGH,"ax",%progbits
 1137              		.align	2
 1138              		.global	ISR_PB_HIGH
 1139              		.thumb
 1140              		.thumb_func
 1141              		.type	ISR_PB_HIGH, %function
 1142              	ISR_PB_HIGH:
 1143              	.LFB71:
 373:InterruptRoutines.c **** } 
 374:InterruptRoutines.c **** 
 375:InterruptRoutines.c **** CY_ISR(ISR_PB_HIGH){  
 1144              		.loc 1 375 0
 1145              		.cfi_startproc
 1146              		@ args = 0, pretend = 0, frame = 0
 1147              		@ frame_needed = 0, uses_anonymous_args = 0
 376:InterruptRoutines.c ****     if(PB_PRESSED == 1){                            // if the button has been pressed
 1148              		.loc 1 376 0
 1149 0000 1F4B     		ldr	r3, .L69
 1150 0002 1B78     		ldrb	r3, [r3]	@ zero_extendqisi2
 1151 0004 012B     		cmp	r3, #1
 1152 0006 39D1     		bne	.L68
 375:InterruptRoutines.c ****     if(PB_PRESSED == 1){                            // if the button has been pressed
 1153              		.loc 1 375 0
 1154 0008 10B5     		push	{r4, lr}
 1155              		.cfi_def_cfa_offset 8
 1156              		.cfi_offset 4, -8
 1157              		.cfi_offset 14, -4
 377:InterruptRoutines.c ****         
ARM GAS  C:\Users\indya\AppData\Local\Temp\ccKs4Gbn.s 			page 28


 378:InterruptRoutines.c ****         TIMER_COUNTER = Timer_PB_ReadCounter();     // read the time elapsed
 1158              		.loc 1 378 0
 1159 000a FFF7FEFF 		bl	Timer_PB_ReadCounter
 1160              	.LVL69:
 1161 000e 1C4C     		ldr	r4, .L69
 1162 0010 6080     		strh	r0, [r4, #2]	@ movhi
 379:InterruptRoutines.c ****         Timer_PB_WriteCounter(0);                   // reset time elapsed
 1163              		.loc 1 379 0
 1164 0012 0020     		movs	r0, #0
 1165 0014 FFF7FEFF 		bl	Timer_PB_WriteCounter
 1166              	.LVL70:
 380:InterruptRoutines.c ****         PB_PRESSED = 0;          
 1167              		.loc 1 380 0
 1168 0018 0023     		movs	r3, #0
 1169 001a 2370     		strb	r3, [r4]
 381:InterruptRoutines.c ****         
 382:InterruptRoutines.c ****         // if 5 seconds have been elapsed
 383:InterruptRoutines.c ****         if(TIMER_COUNTER < 59000){ 
 1170              		.loc 1 383 0
 1171 001c 6388     		ldrh	r3, [r4, #2]
 1172 001e 4EF27762 		movw	r2, #58999
 1173 0022 9342     		cmp	r3, r2
 1174 0024 10D8     		bhi	.L65
 384:InterruptRoutines.c ****             push_button_event = 1;
 1175              		.loc 1 384 0
 1176 0026 0121     		movs	r1, #1
 1177 0028 164A     		ldr	r2, .L69+4
 1178 002a 1170     		strb	r1, [r2]
 385:InterruptRoutines.c ****             elapsed_time = 5*(60000-TIMER_COUNTER);
 1179              		.loc 1 385 0
 1180 002c C3F56A43 		rsb	r3, r3, #59904
 1181 0030 6033     		adds	r3, r3, #96
 1182 0032 03EB8303 		add	r3, r3, r3, lsl #2
 1183 0036 9BB2     		uxth	r3, r3
 1184 0038 134A     		ldr	r2, .L69+8
 1185 003a 1380     		strh	r3, [r2]	@ movhi
 386:InterruptRoutines.c ****             sprintf(elapsed_time_string, "     Elapsed time: %dms \r\n", elapsed_time);
 1186              		.loc 1 386 0
 1187 003c 1288     		ldrh	r2, [r2]
 1188 003e 92B2     		uxth	r2, r2
 1189 0040 1249     		ldr	r1, .L69+12
 1190 0042 1348     		ldr	r0, .L69+16
 1191 0044 FFF7FEFF 		bl	sprintf
 1192              	.LVL71:
 1193              	.L65:
 387:InterruptRoutines.c ****         }
 388:InterruptRoutines.c ****         
 389:InterruptRoutines.c ****         // if 5 seconds haven't been elapsed
 390:InterruptRoutines.c ****         if(TIMER_COUNTER > 59000){
 1194              		.loc 1 390 0
 1195 0048 0D4B     		ldr	r3, .L69
 1196 004a 5B88     		ldrh	r3, [r3, #2]
 1197 004c 4EF27862 		movw	r2, #59000
 1198 0050 9342     		cmp	r3, r2
 1199 0052 10D9     		bls	.L66
 391:InterruptRoutines.c ****             push_button_event = 2;
 1200              		.loc 1 391 0
ARM GAS  C:\Users\indya\AppData\Local\Temp\ccKs4Gbn.s 			page 29


 1201 0054 0221     		movs	r1, #2
 1202 0056 0B4A     		ldr	r2, .L69+4
 1203 0058 1170     		strb	r1, [r2]
 392:InterruptRoutines.c ****             elapsed_time = 5*(60000-TIMER_COUNTER);
 1204              		.loc 1 392 0
 1205 005a C3F56A43 		rsb	r3, r3, #59904
 1206 005e 6033     		adds	r3, r3, #96
 1207 0060 03EB8303 		add	r3, r3, r3, lsl #2
 1208 0064 9BB2     		uxth	r3, r3
 1209 0066 084A     		ldr	r2, .L69+8
 1210 0068 1380     		strh	r3, [r2]	@ movhi
 393:InterruptRoutines.c ****             sprintf(elapsed_time_string, "     Elapsed time: %dms \r\n", elapsed_time);
 1211              		.loc 1 393 0
 1212 006a 1288     		ldrh	r2, [r2]
 1213 006c 92B2     		uxth	r2, r2
 1214 006e 0749     		ldr	r1, .L69+12
 1215 0070 0748     		ldr	r0, .L69+16
 1216 0072 FFF7FEFF 		bl	sprintf
 1217              	.LVL72:
 1218              	.L66:
 394:InterruptRoutines.c ****             
 395:InterruptRoutines.c ****         }
 396:InterruptRoutines.c ****         
 397:InterruptRoutines.c ****         Timer_PB_Stop();
 1219              		.loc 1 397 0
 1220 0076 FFF7FEFF 		bl	Timer_PB_Stop
 1221              	.LVL73:
 1222 007a 10BD     		pop	{r4, pc}
 1223              	.L68:
 1224              		.cfi_def_cfa_offset 0
 1225              		.cfi_restore 4
 1226              		.cfi_restore 14
 1227 007c 7047     		bx	lr
 1228              	.L70:
 1229 007e 00BF     		.align	2
 1230              	.L69:
 1231 0080 00000000 		.word	.LANCHOR0
 1232 0084 00000000 		.word	push_button_event
 1233 0088 00000000 		.word	elapsed_time
 1234 008c 3C000000 		.word	.LC3
 1235 0090 00000000 		.word	elapsed_time_string
 1236              		.cfi_endproc
 1237              	.LFE71:
 1238              		.size	ISR_PB_HIGH, .-ISR_PB_HIGH
 1239              		.global	LED_EEPROM_FULL
 1240              		.global	LED_ACQUISITION_ON
 1241              		.comm	error,1,1
 1242              		.global	TIMER_COUNTER
 1243              		.global	PB_PRESSED
 1244              		.comm	ch_receveid,1,1
 1245              		.comm	SETUP_SF,1,1
 1246              		.comm	SETUP_FSR,1,1
 1247              		.comm	SETUP_SF_CHANGED,1,1
 1248              		.comm	SETUP_FSR_CHANGED,1,1
 1249              		.comm	SETUP_AS_CHANGED,1,1
 1250              		.comm	SETUP_BS_CHANGED,1,1
 1251              		.comm	push_button_event,1,1
ARM GAS  C:\Users\indya\AppData\Local\Temp\ccKs4Gbn.s 			page 30


 1252              		.comm	summary_ready,1,1
 1253              		.comm	OPTION_AS,1,1
 1254              		.comm	OPTION_SF,1,1
 1255              		.comm	OPTION_FSR,1,1
 1256              		.comm	FLAG_BS,1,1
 1257              		.comm	FLAG_AS,1,1
 1258              		.comm	FLAG_SF,1,1
 1259              		.comm	FLAG_FSR,1,1
 1260              		.comm	StartStream_flag,1,1
 1261              		.comm	StartAcquisition_flag,1,1
 1262              		.comm	elapsed_time,2,2
 1263              		.comm	elapsed_time_string,64,4
 1264              		.comm	full_or_empty,1,1
 1265              		.comm	Sensitivity,2,2
 1266              		.comm	SensorDataReady,1,1
 1267              		.comm	SensBytes_old,64,4
 1268              		.comm	SensBytes,64,4
 1269              		.comm	SensData,64,4
 1270              		.comm	CountSensor,1,1
 1271              		.comm	counter_timer,1,1
 1272              		.comm	FlagFifo,1,1
 1273              		.comm	AccData2,192,4
 1274              		.comm	AccData,192,4
 1275              		.section	.rodata
 1276              		.align	2
 1277              		.type	LED_EEPROM_FULL, %object
 1278              		.size	LED_EEPROM_FULL, 4
 1279              	LED_EEPROM_FULL:
 1280 0000 3100     		.short	49
 1281 0002 1800     		.short	24
 1282              		.type	LED_ACQUISITION_ON, %object
 1283              		.size	LED_ACQUISITION_ON, 4
 1284              	LED_ACQUISITION_ON:
 1285 0004 C700     		.short	199
 1286 0006 6400     		.short	100
 1287              		.section	.rodata.str1.4,"aMS",%progbits,1
 1288              		.align	2
 1289              	.LC0:
 1290 0000 0D0A00   		.ascii	"\015\012\000"
 1291 0003 00       		.space	1
 1292              	.LC1:
 1293 0004 20202020 		.ascii	"     Acquisition begun\015\012\000"
 1293      20416371 
 1293      75697369 
 1293      74696F6E 
 1293      20626567 
 1294 001d 000000   		.space	3
 1295              	.LC2:
 1296 0020 20202020 		.ascii	"     Acquisition stopped\015\012\000"
 1296      20416371 
 1296      75697369 
 1296      74696F6E 
 1296      2073746F 
 1297 003b 00       		.space	1
 1298              	.LC3:
 1299 003c 20202020 		.ascii	"     Elapsed time: %dms \015\012\000"
 1299      20456C61 
ARM GAS  C:\Users\indya\AppData\Local\Temp\ccKs4Gbn.s 			page 31


 1299      70736564 
 1299      2074696D 
 1299      653A2025 
 1300              		.bss
 1301              		.align	1
 1302              		.set	.LANCHOR0,. + 0
 1303              		.type	PB_PRESSED, %object
 1304              		.size	PB_PRESSED, 1
 1305              	PB_PRESSED:
 1306 0000 00       		.space	1
 1307 0001 00       		.space	1
 1308              		.type	TIMER_COUNTER, %object
 1309              		.size	TIMER_COUNTER, 2
 1310              	TIMER_COUNTER:
 1311 0002 0000     		.space	2
 1312              		.text
 1313              	.Letext0:
 1314              		.file 2 "c:\\program files (x86)\\cypress\\psoc creator\\4.3\\psoc creator\\import\\gnu\\arm\\5.4.
 1315              		.file 3 "c:\\program files (x86)\\cypress\\psoc creator\\4.3\\psoc creator\\import\\gnu\\arm\\5.4.
 1316              		.file 4 "Generated_Source\\PSoC5/cytypes.h"
 1317              		.file 5 "InterruptRoutines.h"
 1318              		.file 6 "ErrorCodes.h"
 1319              		.file 7 "Generated_Source\\PSoC5/core_cm3.h"
 1320              		.file 8 "Pages.h"
 1321              		.file 9 "Generated_Source\\PSoC5/Timer_sensor.h"
 1322              		.file 10 "I2C_Interface.h"
 1323              		.file 11 "Generated_Source\\PSoC5/ADC.h"
 1324              		.file 12 "Generated_Source\\PSoC5/PWM.h"
 1325              		.file 13 "Generated_Source\\PSoC5/UART.h"
 1326              		.file 14 "Generated_Source\\PSoC5/ISR_PB_LOW.h"
 1327              		.file 15 "Generated_Source\\PSoC5/ISR_PB_HIGH.h"
 1328              		.file 16 "Generated_Source\\PSoC5/pin_LED_EXT.h"
 1329              		.file 17 "Generated_Source\\PSoC5/AMux.h"
 1330              		.file 18 "Generated_Source\\PSoC5/Timer_PB.h"
 1331              		.file 19 "c:\\program files (x86)\\cypress\\psoc creator\\4.3\\psoc creator\\import\\gnu\\arm\\5.4