ARM GAS  C:\Users\indya\AppData\Local\Temp\ccRaUxid.s 			page 1


   1              		.syntax unified
   2              		.cpu cortex-m3
   3              		.fpu softvfp
   4              		.eabi_attribute 20, 1
   5              		.eabi_attribute 21, 1
   6              		.eabi_attribute 23, 3
   7              		.eabi_attribute 24, 1
   8              		.eabi_attribute 25, 1
   9              		.eabi_attribute 26, 1
  10              		.eabi_attribute 30, 1
  11              		.eabi_attribute 34, 1
  12              		.eabi_attribute 18, 4
  13              		.thumb
  14              		.syntax unified
  15              		.file	"main.c"
  16              		.text
  17              	.Ltext0:
  18              		.cfi_sections	.debug_frame
  19              		.global	__aeabi_i2f
  20              		.global	__aeabi_fmul
  21              		.global	__aeabi_f2d
  22              		.global	__aeabi_dmul
  23              		.global	__aeabi_dadd
  24              		.global	__aeabi_d2iz
  25              		.section	.text.main,"ax",%progbits
  26              		.align	2
  27              		.global	main
  28              		.thumb
  29              		.thumb_func
  30              		.type	main, %function
  31              	main:
  32              	.LFB64:
  33              		.file 1 "main.c"
   1:main.c        **** /* ========================================
   2:main.c        ****  *
   3:main.c        ****  * Copyright YOUR COMPANY, THE YEAR
   4:main.c        ****  * All Rights Reserved
   5:main.c        ****  * UNPUBLISHED, LICENSED SOFTWARE.
   6:main.c        ****  *
   7:main.c        ****  * CONFIDENTIAL AND PROPRIETARY INFORMATION
   8:main.c        ****  * WHICH IS THE PROPERTY OF your company.
   9:main.c        ****  *
  10:main.c        ****  * ========================================
  11:main.c        **** */
  12:main.c        **** /**************************************************************************************************
  13:main.c        **** /*                                                   INCLUSIONS                                    
  14:main.c        **** /**************************************************************************************************
  15:main.c        **** 
  16:main.c        **** #include "project.h"
  17:main.c        **** #include "InterruptRoutines.h"
  18:main.c        **** #include "I2C_Interface.h"
  19:main.c        **** #include "SPI_Interface.h"
  20:main.c        **** #include "stdio.h"
  21:main.c        **** #include "Pages.h"
  22:main.c        **** #include "25LC256.h"
  23:main.c        **** #include "Registers.h"
  24:main.c        **** 
ARM GAS  C:\Users\indya\AppData\Local\Temp\ccRaUxid.s 			page 2


  25:main.c        **** 
  26:main.c        **** /**************************************************************************************************
  27:main.c        **** /***************************************************** MAIN ***************************************
  28:main.c        **** /**************************************************************************************************
  29:main.c        **** 
  30:main.c        **** int main(void)
  31:main.c        **** {
  34              		.loc 1 31 0
  35              		.cfi_startproc
  36              		@ args = 0, pretend = 0, frame = 264
  37              		@ frame_needed = 0, uses_anonymous_args = 0
  38 0000 2DE9F04F 		push	{r4, r5, r6, r7, r8, r9, r10, fp, lr}
  39              		.cfi_def_cfa_offset 36
  40              		.cfi_offset 4, -36
  41              		.cfi_offset 5, -32
  42              		.cfi_offset 6, -28
  43              		.cfi_offset 7, -24
  44              		.cfi_offset 8, -20
  45              		.cfi_offset 9, -16
  46              		.cfi_offset 10, -12
  47              		.cfi_offset 11, -8
  48              		.cfi_offset 14, -4
  49 0004 C3B0     		sub	sp, sp, #268
  50              		.cfi_def_cfa_offset 304
  51              	.LVL0:
  32:main.c        ****     /**********************************************************************************************
  33:main.c        ****     /*                                            VARIABLES DECLARATION                            
  34:main.c        ****     /**********************************************************************************************
  35:main.c        **** 
  36:main.c        ****     //Degug
  37:main.c        ****     char message[50];
  38:main.c        **** 
  39:main.c        ****     //Acceleration variables
  40:main.c        ****     int16   x;
  41:main.c        ****     uint8_t xl;
  42:main.c        ****     uint8_t xh;
  43:main.c        ****     int16   y;
  44:main.c        ****     uint8_t yl;
  45:main.c        ****     uint8_t yh;
  46:main.c        ****     int16   z;
  47:main.c        ****     uint8_t zl;
  48:main.c        ****     uint8_t zh;
  49:main.c        ****     int16 x_uart;
  50:main.c        ****     int16 y_uart;
  51:main.c        ****     int16 z_uart;
  52:main.c        **** 
  53:main.c        ****     //Old setup
  54:main.c        ****     uint8_t SETUP_CORRUPTED = 0;
  55:main.c        ****     uint8_t OLD_FSR;
  56:main.c        ****     uint8_t OLD_SF;
  57:main.c        ****     uint8_t OLD_AS;
  58:main.c        ****     uint8_t OLD_BS;
  59:main.c        **** 
  60:main.c        ****     //Flags setup
  61:main.c        ****     SETUP_FSR_CHANGED = 0;
  52              		.loc 1 61 0
  53 0006 0024     		movs	r4, #0
ARM GAS  C:\Users\indya\AppData\Local\Temp\ccRaUxid.s 			page 3


  54 0008 BF4B     		ldr	r3, .L65
  55 000a 1C70     		strb	r4, [r3]
  62:main.c        ****     SETUP_SF_CHANGED  = 0;
  56              		.loc 1 62 0
  57 000c BF4B     		ldr	r3, .L65+4
  58 000e 1C70     		strb	r4, [r3]
  63:main.c        ****     SETUP_AS_CHANGED  = 0;
  59              		.loc 1 63 0
  60 0010 BF4B     		ldr	r3, .L65+8
  61 0012 1C70     		strb	r4, [r3]
  64:main.c        ****     SETUP_BS_CHANGED  = 0;
  62              		.loc 1 64 0
  63 0014 BF4B     		ldr	r3, .L65+12
  64 0016 1C70     		strb	r4, [r3]
  65:main.c        ****     SETUP_FSR         = 0;
  65              		.loc 1 65 0
  66 0018 BF4B     		ldr	r3, .L65+16
  67 001a 1C70     		strb	r4, [r3]
  66:main.c        ****     SETUP_SF          = 0;
  68              		.loc 1 66 0
  69 001c BF4B     		ldr	r3, .L65+20
  70 001e 1C70     		strb	r4, [r3]
  67:main.c        **** 
  68:main.c        ****     //Flags INFO
  69:main.c        ****     FLAG_FSR = 0;
  71              		.loc 1 69 0
  72 0020 BF4B     		ldr	r3, .L65+24
  73 0022 1C70     		strb	r4, [r3]
  70:main.c        ****     FLAG_SF  = 0;
  74              		.loc 1 70 0
  75 0024 BF4B     		ldr	r3, .L65+28
  76 0026 1C70     		strb	r4, [r3]
  71:main.c        ****     FLAG_AS  = 0;
  77              		.loc 1 71 0
  78 0028 BF4B     		ldr	r3, .L65+32
  79 002a 1C70     		strb	r4, [r3]
  72:main.c        ****     FLAG_BS  = 0;
  80              		.loc 1 72 0
  81 002c BF4B     		ldr	r3, .L65+36
  82 002e 1C70     		strb	r4, [r3]
  73:main.c        **** 
  74:main.c        ****     //Flags options
  75:main.c        ****     OPTION_FSR = 0;
  83              		.loc 1 75 0
  84 0030 BF4B     		ldr	r3, .L65+40
  85 0032 1C70     		strb	r4, [r3]
  76:main.c        ****     OPTION_SF  = 0;
  86              		.loc 1 76 0
  87 0034 BF4B     		ldr	r3, .L65+44
  88 0036 1C70     		strb	r4, [r3]
  77:main.c        ****     OPTION_AS  = 0;
  89              		.loc 1 77 0
  90 0038 BF4B     		ldr	r3, .L65+48
  91 003a 1C70     		strb	r4, [r3]
  92              	.LVL1:
  78:main.c        **** 
  79:main.c        **** 
ARM GAS  C:\Users\indya\AppData\Local\Temp\ccRaUxid.s 			page 4


  80:main.c        **** 
  81:main.c        ****     //Data Variables
  82:main.c        ****     uint8_t   Out_Data[DATA_PACKET_DIM];
  83:main.c        **** 
  84:main.c        ****     //Number of bytes to be written during page writing and pointer to data to be written.
  85:main.c        ****     uint8_t Bytes_for_page= 64;
  86:main.c        ****     uint8_t * data_pointer;
  87:main.c        **** 
  88:main.c        **** 
  89:main.c        ****     //Flags Flow
  90:main.c        ****     StartAcquisition_flag = 0;
  93              		.loc 1 90 0
  94 003c BF4B     		ldr	r3, .L65+52
  95 003e 1C70     		strb	r4, [r3]
  91:main.c        ****     StartStream_flag      = 0;
  96              		.loc 1 91 0
  97 0040 BF4B     		ldr	r3, .L65+56
  98 0042 1C70     		strb	r4, [r3]
  92:main.c        **** 
  93:main.c        ****     //Flags notifications
  94:main.c        ****     summary_ready     = 0;
  99              		.loc 1 94 0
 100 0044 BF4B     		ldr	r3, .L65+60
 101 0046 1C70     		strb	r4, [r3]
  95:main.c        ****     push_button_event = 0;
 102              		.loc 1 95 0
 103 0048 BF4B     		ldr	r3, .L65+64
 104 004a 1C70     		strb	r4, [r3]
  96:main.c        ****     full_or_empty     = 0;
 105              		.loc 1 96 0
 106 004c BF4B     		ldr	r3, .L65+68
 107 004e 1C70     		strb	r4, [r3]
  97:main.c        **** 
  98:main.c        ****     //Comunication
  99:main.c        ****     uint8_t  Packets[192];
 100:main.c        ****              SensorDataReady  = 0;
 108              		.loc 1 100 0
 109 0050 BF4B     		ldr	r3, .L65+72
 110 0052 1C70     		strb	r4, [r3]
 111              	.LVL2:
 101:main.c        ****     uint8_t  index            = 0;
 102:main.c        ****     uint8_t  i            = 0;
 103:main.c        ****     uint16_t Adress_to_read;
 104:main.c        ****     uint16_t Adress_to_write;
 105:main.c        ****     uint8_t  UART_OutArray[UART_PACKET_DIM];
 106:main.c        ****     UART_OutArray[0]                   = 0xA0; //header
 112              		.loc 1 106 0
 113 0054 A023     		movs	r3, #160
 114 0056 8DF80030 		strb	r3, [sp]
 107:main.c        ****     UART_OutArray[UART_PACKET_DIM - 1] = 0xC0; //tail
 115              		.loc 1 107 0
 116 005a C023     		movs	r3, #192
 117 005c 8DF80930 		strb	r3, [sp, #9]
 108:main.c        ****     ErrorCode error;
 109:main.c        **** 
 110:main.c        ****     /**********************************************************************************************
 111:main.c        ****     /*                                               COMPONENTS START                              
ARM GAS  C:\Users\indya\AppData\Local\Temp\ccRaUxid.s 			page 5


 112:main.c        ****     /**********************************************************************************************
 113:main.c        **** 
 114:main.c        ****     UART_Start();
 118              		.loc 1 114 0
 119 0060 FFF7FEFF 		bl	UART_Start
 120              	.LVL3:
 115:main.c        ****     SPIM_1_Start();
 121              		.loc 1 115 0
 122 0064 FFF7FEFF 		bl	SPIM_1_Start
 123              	.LVL4:
 116:main.c        ****     I2C_Peripheral_Start();
 124              		.loc 1 116 0
 125 0068 FFF7FEFF 		bl	I2C_Peripheral_Start
 126              	.LVL5:
 117:main.c        ****     CyDelay(10);
 127              		.loc 1 117 0
 128 006c 0A20     		movs	r0, #10
 129 006e FFF7FEFF 		bl	CyDelay
 130              	.LVL6:
 118:main.c        ****     AMux_Start();
 131              		.loc 1 118 0
 132 0072 FFF7FEFF 		bl	AMux_Start
 133              	.LVL7:
 119:main.c        ****     ADC_Start();
 134              		.loc 1 119 0
 135 0076 FFF7FEFF 		bl	ADC_Start
 136              	.LVL8:
 120:main.c        ****     Timer_sensor_Start();
 137              		.loc 1 120 0
 138 007a FFF7FEFF 		bl	Timer_sensor_Start
 139              	.LVL9:
 121:main.c        **** 
 122:main.c        ****     /**********************************************************************************************
 123:main.c        ****     /*                                              INTERRUPTs ENABLE                              
 124:main.c        ****     /**********************************************************************************************
 125:main.c        **** 
 126:main.c        ****     CyGlobalIntEnable;                      /* Enable global interrupts. */
 140              		.loc 1 126 0
 141              		.syntax unified
 142              	@ 126 "main.c" 1
 143 007e 62B6     		CPSIE   i
 144              	@ 0 "" 2
 127:main.c        ****     isr_RX_StartEx(Custom_ISR_RX);          /* UART on RX */
 145              		.loc 1 127 0
 146              		.thumb
 147              		.syntax unified
 148 0080 B448     		ldr	r0, .L65+76
 149 0082 FFF7FEFF 		bl	isr_RX_StartEx
 150              	.LVL10:
 128:main.c        ****     ISR_PB_LOW_StartEx(ISR_PB_LOW);         /* Push button LOW */
 151              		.loc 1 128 0
 152 0086 B448     		ldr	r0, .L65+80
 153 0088 FFF7FEFF 		bl	ISR_PB_LOW_StartEx
 154              	.LVL11:
 129:main.c        ****     ISR_PB_HIGH_StartEx(ISR_PB_HIGH);       /* Push button HIGH */
 155              		.loc 1 129 0
 156 008c B348     		ldr	r0, .L65+84
ARM GAS  C:\Users\indya\AppData\Local\Temp\ccRaUxid.s 			page 6


 157 008e FFF7FEFF 		bl	ISR_PB_HIGH_StartEx
 158              	.LVL12:
 130:main.c        ****     isr_FIFO_StartEx(Custom_FIFO_ISR);      /* FIFO interrupt enabled pointing to proper function a
 159              		.loc 1 130 0
 160 0092 B348     		ldr	r0, .L65+88
 161 0094 FFF7FEFF 		bl	isr_FIFO_StartEx
 162              	.LVL13:
 131:main.c        ****     isr_TIMER_StartEx(Custom_TIMER_ISR);    /* TIMER interrupt enabled pointing to proper function 
 163              		.loc 1 131 0
 164 0098 B248     		ldr	r0, .L65+92
 165 009a FFF7FEFF 		bl	isr_TIMER_StartEx
 166              	.LVL14:
 132:main.c        ****     pin_LED_EXT_Write(0);                   /* turning off the external led */
 167              		.loc 1 132 0
 168 009e 2046     		mov	r0, r4
 169 00a0 FFF7FEFF 		bl	pin_LED_EXT_Write
 170              	.LVL15:
 133:main.c        **** 
 134:main.c        ****     /**********************************************************************************************
 135:main.c        ****     /*                                  RESETTING EEPROM 0x0000 and 0x0001 INDEX                   
 136:main.c        ****     /**********************************************************************************************
 137:main.c        ****      /*I Check the adress where i want to start writing*/
 138:main.c        ****     uint8_t EEPROM_Adress_Pointer_L = EEPROM_readByte(0x0000);
 171              		.loc 1 138 0
 172 00a4 2046     		mov	r0, r4
 173 00a6 FFF7FEFF 		bl	EEPROM_readByte
 174              	.LVL16:
 175 00aa 0446     		mov	r4, r0
 176              	.LVL17:
 139:main.c        ****     uint8_t EEPROM_Adress_Pointer_H = EEPROM_readByte(0x0001);
 177              		.loc 1 139 0
 178 00ac 0120     		movs	r0, #1
 179 00ae FFF7FEFF 		bl	EEPROM_readByte
 180              	.LVL18:
 140:main.c        ****     uint16_t EEPROM_Adress = (uint16_t) EEPROM_Adress_Pointer_L | (EEPROM_Adress_Pointer_H<<8);
 181              		.loc 1 140 0
 182 00b2 44EA0020 		orr	r0, r4, r0, lsl #8
 183              	.LVL19:
 184 00b6 83B2     		uxth	r3, r0
 185              	.LVL20:
 141:main.c        **** 
 142:main.c        ****     if (EEPROM_Adress<EEPROM_INITIAL_ADDRESS)
 186              		.loc 1 142 0
 187 00b8 7F2B     		cmp	r3, #127
 188 00ba 0BD8     		bhi	.L2
 143:main.c        ****     {
 144:main.c        ****         // Resetting pointer's value on EEPROM
 145:main.c        ****         EEPROM_writeByte(0x0000, (uint8_t) EEPROM_INITIAL_ADDRESS);
 189              		.loc 1 145 0
 190 00bc 8021     		movs	r1, #128
 191 00be 0020     		movs	r0, #0
 192 00c0 FFF7FEFF 		bl	EEPROM_writeByte
 193              	.LVL21:
 146:main.c        ****         EEPROM_waitForWriteComplete();
 194              		.loc 1 146 0
 195 00c4 FFF7FEFF 		bl	EEPROM_waitForWriteComplete
 196              	.LVL22:
ARM GAS  C:\Users\indya\AppData\Local\Temp\ccRaUxid.s 			page 7


 147:main.c        ****         EEPROM_writeByte(0x0001, (uint8_t) 0);
 197              		.loc 1 147 0
 198 00c8 0021     		movs	r1, #0
 199 00ca 0120     		movs	r0, #1
 200 00cc FFF7FEFF 		bl	EEPROM_writeByte
 201              	.LVL23:
 148:main.c        ****         EEPROM_waitForWriteComplete();
 202              		.loc 1 148 0
 203 00d0 FFF7FEFF 		bl	EEPROM_waitForWriteComplete
 204              	.LVL24:
 205              	.L2:
 149:main.c        ****     }
 150:main.c        **** 
 151:main.c        ****     // Creating a new pointer
 152:main.c        ****     EEPROM_Adress_Pointer_L = EEPROM_readByte(0x0000);
 206              		.loc 1 152 0
 207 00d4 0020     		movs	r0, #0
 208 00d6 FFF7FEFF 		bl	EEPROM_readByte
 209              	.LVL25:
 210 00da 0446     		mov	r4, r0
 211              	.LVL26:
 153:main.c        ****     EEPROM_Adress_Pointer_H = EEPROM_readByte(0x0001);
 212              		.loc 1 153 0
 213 00dc 0120     		movs	r0, #1
 214 00de FFF7FEFF 		bl	EEPROM_readByte
 215              	.LVL27:
 154:main.c        ****     EEPROM_Adress = (uint16_t) (EEPROM_Adress_Pointer_H<<8) | EEPROM_Adress_Pointer_L ;
 216              		.loc 1 154 0
 217 00e2 0002     		lsls	r0, r0, #8
 218              	.LVL28:
 219 00e4 83B2     		uxth	r3, r0
 220 00e6 1C43     		orrs	r4, r4, r3
 221              	.LVL29:
 222 00e8 A4B2     		uxth	r4, r4
 223              	.LVL30:
 155:main.c        **** 
 156:main.c        ****     UART_PutString("\r\n");
 224              		.loc 1 156 0
 225 00ea 9F4D     		ldr	r5, .L65+96
 226 00ec 2846     		mov	r0, r5
 227 00ee FFF7FEFF 		bl	UART_PutString
 228              	.LVL31:
 157:main.c        ****     sprintf(message,"     EEPROM will be written starting from address: 0x%x\r\n", EEPROM_Adress);
 229              		.loc 1 157 0
 230 00f2 2246     		mov	r2, r4
 231 00f4 9D49     		ldr	r1, .L65+100
 232 00f6 35A8     		add	r0, sp, #212
 233 00f8 FFF7FEFF 		bl	sprintf
 234              	.LVL32:
 158:main.c        ****     UART_PutString(message);
 235              		.loc 1 158 0
 236 00fc 35A8     		add	r0, sp, #212
 237 00fe FFF7FEFF 		bl	UART_PutString
 238              	.LVL33:
 159:main.c        **** 
 160:main.c        ****     /**********************************************************************************************
 161:main.c        ****     /*                                            RETRIVING OLD SETUP                              
ARM GAS  C:\Users\indya\AppData\Local\Temp\ccRaUxid.s 			page 8


 162:main.c        ****     /**********************************************************************************************
 163:main.c        **** 
 164:main.c        ****     UART_PutString("\r\n");
 239              		.loc 1 164 0
 240 0102 2846     		mov	r0, r5
 241 0104 FFF7FEFF 		bl	UART_PutString
 242              	.LVL34:
 165:main.c        ****     UART_PutString("     Retriving old setup...\r\n");
 243              		.loc 1 165 0
 244 0108 9948     		ldr	r0, .L65+104
 245 010a FFF7FEFF 		bl	UART_PutString
 246              	.LVL35:
 166:main.c        ****     UART_PutString("\r\n");
 247              		.loc 1 166 0
 248 010e 2846     		mov	r0, r5
 249 0110 FFF7FEFF 		bl	UART_PutString
 250              	.LVL36:
 167:main.c        **** 
 168:main.c        ****     /* reading from EEPROM old Sampling Frequency */
 169:main.c        ****     OLD_SF = EEPROM_readByte(EEPROM_OLD_SF_ADDRESS);
 251              		.loc 1 169 0
 252 0114 0220     		movs	r0, #2
 253 0116 FFF7FEFF 		bl	EEPROM_readByte
 254              	.LVL37:
 255 011a 0746     		mov	r7, r0
 256              	.LVL38:
 170:main.c        ****     if (OLD_SF!=0x17 && OLD_SF!=0x27 && OLD_SF!=0x37 && OLD_SF!=0x47){
 257              		.loc 1 170 0
 258 011c 1728     		cmp	r0, #23
 259 011e 0AD0     		beq	.L3
 260              		.loc 1 170 0 is_stmt 0 discriminator 1
 261 0120 2728     		cmp	r0, #39
 262 0122 08D0     		beq	.L3
 263              		.loc 1 170 0 discriminator 2
 264 0124 3728     		cmp	r0, #55
 265 0126 06D0     		beq	.L3
 266              		.loc 1 170 0 discriminator 3
 267 0128 4728     		cmp	r0, #71
 268 012a 04D0     		beq	.L3
 171:main.c        ****         UART_PutString("     Old Sampling frequency            CORRUPTED\r\n");
 269              		.loc 1 171 0 is_stmt 1
 270 012c 9148     		ldr	r0, .L65+108
 271              	.LVL39:
 272 012e FFF7FEFF 		bl	UART_PutString
 273              	.LVL40:
 172:main.c        ****         SETUP_CORRUPTED++;}
 274              		.loc 1 172 0
 275 0132 0124     		movs	r4, #1
 276              	.LVL41:
 277 0134 08E0     		b	.L4
 278              	.LVL42:
 279              	.L3:
 173:main.c        ****     else{
 174:main.c        ****         sprintf(message, "     Old additional sensor      0x%02X RETRIVED\r\n", OLD_SF);
 280              		.loc 1 174 0
 281 0136 3A46     		mov	r2, r7
 282 0138 8F49     		ldr	r1, .L65+112
ARM GAS  C:\Users\indya\AppData\Local\Temp\ccRaUxid.s 			page 9


 283 013a 35A8     		add	r0, sp, #212
 284              	.LVL43:
 285 013c FFF7FEFF 		bl	sprintf
 286              	.LVL44:
 175:main.c        ****         UART_PutString(message);}
 287              		.loc 1 175 0
 288 0140 35A8     		add	r0, sp, #212
 289 0142 FFF7FEFF 		bl	UART_PutString
 290              	.LVL45:
  54:main.c        ****     uint8_t OLD_FSR;
 291              		.loc 1 54 0
 292 0146 0024     		movs	r4, #0
 293              	.LVL46:
 294              	.L4:
 176:main.c        **** 
 177:main.c        ****     /* reading from EEPROM old Full Scale Range */
 178:main.c        ****     OLD_FSR = EEPROM_readByte(EEPROM_OLD_FSR_ADDRESS);
 295              		.loc 1 178 0
 296 0148 0320     		movs	r0, #3
 297 014a FFF7FEFF 		bl	EEPROM_readByte
 298              	.LVL47:
 299 014e 0546     		mov	r5, r0
 300              	.LVL48:
 179:main.c        ****     if (OLD_FSR!=0x80 && OLD_FSR!=0x90 && OLD_FSR!=0xA0 && OLD_FSR!=0xB0){
 301              		.loc 1 179 0
 302 0150 8028     		cmp	r0, #128
 303 0152 0BD0     		beq	.L5
 304              		.loc 1 179 0 is_stmt 0 discriminator 1
 305 0154 9028     		cmp	r0, #144
 306 0156 09D0     		beq	.L5
 307              		.loc 1 179 0 discriminator 2
 308 0158 A028     		cmp	r0, #160
 309 015a 07D0     		beq	.L5
 310              		.loc 1 179 0 discriminator 3
 311 015c B028     		cmp	r0, #176
 312 015e 05D0     		beq	.L5
 180:main.c        ****         UART_PutString("     Old full scale range              CORRUPTED\r\n");
 313              		.loc 1 180 0 is_stmt 1
 314 0160 8648     		ldr	r0, .L65+116
 315              	.LVL49:
 316 0162 FFF7FEFF 		bl	UART_PutString
 317              	.LVL50:
 181:main.c        ****         SETUP_CORRUPTED++;}
 318              		.loc 1 181 0
 319 0166 0134     		adds	r4, r4, #1
 320              	.LVL51:
 321 0168 E4B2     		uxtb	r4, r4
 322              	.LVL52:
 323 016a 07E0     		b	.L6
 324              	.LVL53:
 325              	.L5:
 182:main.c        ****     else{
 183:main.c        ****         sprintf(message, "     Old full scale range       0x%02X RETRIVED\r\n", OLD_FSR);
 326              		.loc 1 183 0
 327 016c 2A46     		mov	r2, r5
 328 016e 8449     		ldr	r1, .L65+120
 329 0170 35A8     		add	r0, sp, #212
ARM GAS  C:\Users\indya\AppData\Local\Temp\ccRaUxid.s 			page 10


 330              	.LVL54:
 331 0172 FFF7FEFF 		bl	sprintf
 332              	.LVL55:
 184:main.c        ****         UART_PutString(message);}
 333              		.loc 1 184 0
 334 0176 35A8     		add	r0, sp, #212
 335 0178 FFF7FEFF 		bl	UART_PutString
 336              	.LVL56:
 337              	.L6:
 185:main.c        **** 
 186:main.c        ****     /* reading from EEPROM old Additional sensor */
 187:main.c        ****     OLD_AS = EEPROM_readByte(EEPROM_OLD_AS_ADDRESS);
 338              		.loc 1 187 0
 339 017c 0420     		movs	r0, #4
 340 017e FFF7FEFF 		bl	EEPROM_readByte
 341              	.LVL57:
 342 0182 8146     		mov	r9, r0
 343              	.LVL58:
 188:main.c        ****     if (OLD_AS!=0x00 && OLD_AS!=0x01){
 344              		.loc 1 188 0
 345 0184 0128     		cmp	r0, #1
 346 0186 05D9     		bls	.L7
 189:main.c        ****         UART_PutString("     Old additional sensor             CORRUPTED\r\n");
 347              		.loc 1 189 0
 348 0188 7E48     		ldr	r0, .L65+124
 349              	.LVL59:
 350 018a FFF7FEFF 		bl	UART_PutString
 351              	.LVL60:
 190:main.c        ****         SETUP_CORRUPTED++;}
 352              		.loc 1 190 0
 353 018e 0134     		adds	r4, r4, #1
 354              	.LVL61:
 355 0190 E4B2     		uxtb	r4, r4
 356              	.LVL62:
 357 0192 07E0     		b	.L8
 358              	.LVL63:
 359              	.L7:
 191:main.c        ****     else{
 192:main.c        ****         sprintf(message, "     Old additional sensor      0x%02X RETRIVED\r\n", OLD_AS);
 360              		.loc 1 192 0
 361 0194 0246     		mov	r2, r0
 362 0196 7849     		ldr	r1, .L65+112
 363 0198 35A8     		add	r0, sp, #212
 364              	.LVL64:
 365 019a FFF7FEFF 		bl	sprintf
 366              	.LVL65:
 193:main.c        ****         UART_PutString(message);}
 367              		.loc 1 193 0
 368 019e 35A8     		add	r0, sp, #212
 369 01a0 FFF7FEFF 		bl	UART_PutString
 370              	.LVL66:
 371              	.L8:
 194:main.c        **** 
 195:main.c        ****     /* reading from EEPROM old Start/Stop Condition */
 196:main.c        ****     OLD_BS = EEPROM_readByte(EEPROM_OLD_BS_ADDRESS);
 372              		.loc 1 196 0
 373 01a4 0520     		movs	r0, #5
ARM GAS  C:\Users\indya\AppData\Local\Temp\ccRaUxid.s 			page 11


 374 01a6 FFF7FEFF 		bl	EEPROM_readByte
 375              	.LVL67:
 376 01aa 8046     		mov	r8, r0
 377              	.LVL68:
 197:main.c        ****     if (OLD_BS!=0x00 && OLD_BS!=0x01){
 378              		.loc 1 197 0
 379 01ac 0128     		cmp	r0, #1
 380 01ae 05D9     		bls	.L9
 198:main.c        ****         UART_PutString("     Old start/stop condition          CORRUPTED\r\n");
 381              		.loc 1 198 0
 382 01b0 7548     		ldr	r0, .L65+128
 383              	.LVL69:
 384 01b2 FFF7FEFF 		bl	UART_PutString
 385              	.LVL70:
 199:main.c        ****         SETUP_CORRUPTED++;}
 386              		.loc 1 199 0
 387 01b6 0134     		adds	r4, r4, #1
 388              	.LVL71:
 389 01b8 E4B2     		uxtb	r4, r4
 390              	.LVL72:
 391 01ba 07E0     		b	.L10
 392              	.LVL73:
 393              	.L9:
 200:main.c        ****     else{
 201:main.c        ****         sprintf(message, "     Old start/stop condition   0x%02X RETRIVED\r\n", OLD_BS);
 394              		.loc 1 201 0
 395 01bc 0246     		mov	r2, r0
 396 01be 7349     		ldr	r1, .L65+132
 397 01c0 35A8     		add	r0, sp, #212
 398              	.LVL74:
 399 01c2 FFF7FEFF 		bl	sprintf
 400              	.LVL75:
 202:main.c        ****         UART_PutString(message);}
 401              		.loc 1 202 0
 402 01c6 35A8     		add	r0, sp, #212
 403 01c8 FFF7FEFF 		bl	UART_PutString
 404              	.LVL76:
 405              	.L10:
 203:main.c        **** 
 204:main.c        ****     /**********************************************************************************************
 205:main.c        ****     /*                                        CHECKING OLD SETUP INTEGRITY                         
 206:main.c        ****     /**********************************************************************************************
 207:main.c        ****     /*  IF OLD SETUP ARE CORRUPTED, DEFAULT MODE  */
 208:main.c        ****     /**********************************************/
 209:main.c        **** 
 210:main.c        ****     if(SETUP_CORRUPTED>0){
 406              		.loc 1 210 0
 407 01cc 002C     		cmp	r4, #0
 408 01ce 65D0     		beq	.L11
 211:main.c        **** 
 212:main.c        ****         /* Default Start/Stop Condition ***********************************************************
 213:main.c        ****         StartAcquisition_flag = 0;
 409              		.loc 1 213 0
 410 01d0 4FF0000A 		mov	r10, #0
 411 01d4 594B     		ldr	r3, .L65+52
 412 01d6 83F800A0 		strb	r10, [r3]
 214:main.c        ****         Timer_sensor_Stop();
ARM GAS  C:\Users\indya\AppData\Local\Temp\ccRaUxid.s 			page 12


 413              		.loc 1 214 0
 414 01da FFF7FEFF 		bl	Timer_sensor_Stop
 415              	.LVL77:
 215:main.c        ****         Timer_sensor_ReadStatusRegister();
 416              		.loc 1 215 0
 417 01de FFF7FEFF 		bl	Timer_sensor_ReadStatusRegister
 418              	.LVL78:
 216:main.c        ****         error = I2C_Peripheral_WriteRegister(LIS3DH_DEVICE_ADDRESS,
 419              		.loc 1 216 0
 420 01e2 5246     		mov	r2, r10
 421 01e4 2221     		movs	r1, #34
 422 01e6 1820     		movs	r0, #24
 423 01e8 FFF7FEFF 		bl	I2C_Peripheral_WriteRegister
 424              	.LVL79:
 217:main.c        ****                                              LIS3DH_CTRL_REG3,
 218:main.c        ****                                              LIS3DH_CTRL_REG3_INT_DISABLED);
 219:main.c        ****         error = I2C_Peripheral_WriteRegister(LIS3DH_DEVICE_ADDRESS,
 425              		.loc 1 219 0
 426 01ec 5246     		mov	r2, r10
 427 01ee 2E21     		movs	r1, #46
 428 01f0 1820     		movs	r0, #24
 429 01f2 FFF7FEFF 		bl	I2C_Peripheral_WriteRegister
 430              	.LVL80:
 220:main.c        ****                                              LIS3DH_FIFO_CTRL_REG,
 221:main.c        ****                                              LIS3DH_FIFO_CTRL_REG_BYPASS_MODE);
 222:main.c        ****         error = I2C_Peripheral_WriteRegister(LIS3DH_DEVICE_ADDRESS,
 431              		.loc 1 222 0
 432 01f6 5246     		mov	r2, r10
 433 01f8 2421     		movs	r1, #36
 434 01fa 1820     		movs	r0, #24
 435 01fc FFF7FEFF 		bl	I2C_Peripheral_WriteRegister
 436              	.LVL81:
 223:main.c        ****                                              LIS3DH_CTRL_REG5,
 224:main.c        ****                                              LIS3DH_CTRL_REG5_FIFO_DISABLE);
 225:main.c        **** 
 226:main.c        ****         UART_PutString("     DEFAULT Start/Stop cond.   : STOP \r\n");
 437              		.loc 1 226 0
 438 0200 6348     		ldr	r0, .L65+136
 439 0202 FFF7FEFF 		bl	UART_PutString
 440              	.LVL82:
 227:main.c        **** 
 228:main.c        ****         /* default Sampling Frequency *************************************************************
 229:main.c        ****         error = I2C_Peripheral_WriteRegister(LIS3DH_DEVICE_ADDRESS,
 441              		.loc 1 229 0
 442 0206 1722     		movs	r2, #23
 443 0208 2021     		movs	r1, #32
 444 020a 1820     		movs	r0, #24
 445 020c FFF7FEFF 		bl	I2C_Peripheral_WriteRegister
 446              	.LVL83:
 230:main.c        ****                                              LIS3DH_CTRL_REG1,
 231:main.c        ****                                              LIS3DH_CTRL_REG1_SF_1HZ);
 232:main.c        ****         if (error == NO_ERROR){
 447              		.loc 1 232 0
 448 0210 38B9     		cbnz	r0, .L12
 233:main.c        ****             UART_PutString("     DEFAULT sampling frequency : 1Hz \r\n");
 449              		.loc 1 233 0
 450 0212 6048     		ldr	r0, .L65+140
ARM GAS  C:\Users\indya\AppData\Local\Temp\ccRaUxid.s 			page 13


 451              	.LVL84:
 452 0214 FFF7FEFF 		bl	UART_PutString
 453              	.LVL85:
 234:main.c        ****             CHANGE_ADC_SF(1000);}
 454              		.loc 1 234 0
 455 0218 4FF47A70 		mov	r0, #1000
 456 021c FFF7FEFF 		bl	CHANGE_ADC_SF
 457              	.LVL86:
 458 0220 02E0     		b	.L13
 459              	.LVL87:
 460              	.L12:
 235:main.c        ****         else{UART_PutString("     Error occurred setting the default sampling frequency \r\n");}
 461              		.loc 1 235 0
 462 0222 5D48     		ldr	r0, .L65+144
 463              	.LVL88:
 464 0224 FFF7FEFF 		bl	UART_PutString
 465              	.LVL89:
 466              	.L13:
 236:main.c        **** 
 237:main.c        ****         /* default Full Scale Range and sensitivity ***********************************************
 238:main.c        ****         error = I2C_Peripheral_WriteRegister(LIS3DH_DEVICE_ADDRESS,
 467              		.loc 1 238 0
 468 0228 8022     		movs	r2, #128
 469 022a 2321     		movs	r1, #35
 470 022c 1820     		movs	r0, #24
 471 022e FFF7FEFF 		bl	I2C_Peripheral_WriteRegister
 472              	.LVL90:
 239:main.c        ****                                              LIS3DH_CTRL_REG4,
 240:main.c        ****                                              LIS3DH_CTRL_REG4_FSR_2G);
 241:main.c        ****         if (error == NO_ERROR){
 473              		.loc 1 241 0
 474 0232 30B9     		cbnz	r0, .L14
 242:main.c        ****             Sensitivity = 4;
 475              		.loc 1 242 0
 476 0234 0422     		movs	r2, #4
 477 0236 594B     		ldr	r3, .L65+148
 478 0238 1A80     		strh	r2, [r3]	@ movhi
 243:main.c        ****             UART_PutString("     DEFAULT full scale range   : +-2g \r\n");}
 479              		.loc 1 243 0
 480 023a 5948     		ldr	r0, .L65+152
 481              	.LVL91:
 482 023c FFF7FEFF 		bl	UART_PutString
 483              	.LVL92:
 484 0240 02E0     		b	.L15
 485              	.LVL93:
 486              	.L14:
 244:main.c        ****         else{UART_PutString("     Error occurred setting the default full scale range \r\n");}
 487              		.loc 1 244 0
 488 0242 5848     		ldr	r0, .L65+156
 489              	.LVL94:
 490 0244 FFF7FEFF 		bl	UART_PutString
 491              	.LVL95:
 492              	.L15:
 245:main.c        **** 
 246:main.c        ****         /* default Additional Sensor **************************************************************
 247:main.c        ****         AMux_Select(0);
 493              		.loc 1 247 0
ARM GAS  C:\Users\indya\AppData\Local\Temp\ccRaUxid.s 			page 14


 494 0248 0020     		movs	r0, #0
 495 024a FFF7FEFF 		bl	AMux_Select
 496              	.LVL96:
 248:main.c        ****         UART_PutString("     DEFAULT additional sensor  : Potentiometer \r\n");
 497              		.loc 1 248 0
 498 024e 5648     		ldr	r0, .L65+160
 499 0250 FFF7FEFF 		bl	UART_PutString
 500              	.LVL97:
 249:main.c        **** 
 250:main.c        ****         /* saving latter setup on EEPROM **********************************************************
 251:main.c        ****         EEPROM_writeByte(EEPROM_OLD_SF_ADDRESS, LIS3DH_CTRL_REG1_SF_1HZ);
 501              		.loc 1 251 0
 502 0254 1721     		movs	r1, #23
 503 0256 0220     		movs	r0, #2
 504 0258 FFF7FEFF 		bl	EEPROM_writeByte
 505              	.LVL98:
 252:main.c        ****         EEPROM_waitForWriteComplete();
 506              		.loc 1 252 0
 507 025c FFF7FEFF 		bl	EEPROM_waitForWriteComplete
 508              	.LVL99:
 253:main.c        ****         UART_PutString("     Sampling frequency                SUCCESSFULLY SAVED \r\n");
 509              		.loc 1 253 0
 510 0260 5248     		ldr	r0, .L65+164
 511 0262 FFF7FEFF 		bl	UART_PutString
 512              	.LVL100:
 254:main.c        ****         EEPROM_writeByte(EEPROM_OLD_FSR_ADDRESS, LIS3DH_CTRL_REG4_FSR_2G);
 513              		.loc 1 254 0
 514 0266 8021     		movs	r1, #128
 515 0268 0320     		movs	r0, #3
 516 026a FFF7FEFF 		bl	EEPROM_writeByte
 517              	.LVL101:
 255:main.c        ****         EEPROM_waitForWriteComplete();
 518              		.loc 1 255 0
 519 026e FFF7FEFF 		bl	EEPROM_waitForWriteComplete
 520              	.LVL102:
 256:main.c        ****         UART_PutString("     Full scale range                  SUCCESSFULLY SAVED \r\n");
 521              		.loc 1 256 0
 522 0272 4F48     		ldr	r0, .L65+168
 523 0274 FFF7FEFF 		bl	UART_PutString
 524              	.LVL103:
 257:main.c        ****         EEPROM_writeByte(EEPROM_OLD_AS_ADDRESS, 0x01);
 525              		.loc 1 257 0
 526 0278 0121     		movs	r1, #1
 527 027a 0420     		movs	r0, #4
 528 027c FFF7FEFF 		bl	EEPROM_writeByte
 529              	.LVL104:
 258:main.c        ****         EEPROM_waitForWriteComplete();
 530              		.loc 1 258 0
 531 0280 FFF7FEFF 		bl	EEPROM_waitForWriteComplete
 532              	.LVL105:
 259:main.c        ****         UART_PutString("     Additional sensor                 SUCCESSFULLY SAVED \r\n");
 533              		.loc 1 259 0
 534 0284 4B48     		ldr	r0, .L65+172
 535 0286 FFF7FEFF 		bl	UART_PutString
 536              	.LVL106:
 260:main.c        ****         EEPROM_writeByte(EEPROM_OLD_BS_ADDRESS, 0x00);
 537              		.loc 1 260 0
ARM GAS  C:\Users\indya\AppData\Local\Temp\ccRaUxid.s 			page 15


 538 028a 0021     		movs	r1, #0
 539 028c 0520     		movs	r0, #5
 540 028e FFF7FEFF 		bl	EEPROM_writeByte
 541              	.LVL107:
 261:main.c        ****         EEPROM_waitForWriteComplete();
 542              		.loc 1 261 0
 543 0292 FFF7FEFF 		bl	EEPROM_waitForWriteComplete
 544              	.LVL108:
 262:main.c        ****         UART_PutString("     Start/stop condition              SUCCESSFULLY SAVED \r\n");
 545              		.loc 1 262 0
 546 0296 4848     		ldr	r0, .L65+176
 547 0298 FFF7FEFF 		bl	UART_PutString
 548              	.LVL109:
 549              	.L11:
 263:main.c        ****     }
 264:main.c        **** 
 265:main.c        ****     /**************************************************/
 266:main.c        ****     /*    IF OLD SETUP ARE NOT CORRUPTED, OLD MODE    */
 267:main.c        ****     /**************************************************/
 268:main.c        **** 
 269:main.c        ****     if(SETUP_CORRUPTED==0){
 550              		.loc 1 269 0
 551 029c 002C     		cmp	r4, #0
 552 029e 40F0EA80 		bne	.L16
 270:main.c        **** 
 271:main.c        ****         /* Changing ADC sampling frequency ********************************************************
 272:main.c        ****         switch(OLD_SF){
 553              		.loc 1 272 0
 554 02a2 272F     		cmp	r7, #39
 555 02a4 0DD0     		beq	.L18
 556 02a6 02D8     		bhi	.L19
 557 02a8 172F     		cmp	r7, #23
 558 02aa 05D0     		beq	.L20
 559 02ac 14E0     		b	.L17
 560              	.L19:
 561 02ae 372F     		cmp	r7, #55
 562 02b0 0BD0     		beq	.L21
 563 02b2 472F     		cmp	r7, #71
 564 02b4 0DD0     		beq	.L22
 565 02b6 0FE0     		b	.L17
 566              	.L20:
 273:main.c        ****             case LIS3DH_CTRL_REG1_SF_1HZ:  CHANGE_ADC_SF(1000); break;
 567              		.loc 1 273 0
 568 02b8 4FF47A70 		mov	r0, #1000
 569 02bc FFF7FEFF 		bl	CHANGE_ADC_SF
 570              	.LVL110:
 571 02c0 0AE0     		b	.L17
 572              	.L18:
 274:main.c        ****             case LIS3DH_CTRL_REG1_SF_10HZ: CHANGE_ADC_SF(100);  break;
 573              		.loc 1 274 0
 574 02c2 6420     		movs	r0, #100
 575 02c4 FFF7FEFF 		bl	CHANGE_ADC_SF
 576              	.LVL111:
 577 02c8 06E0     		b	.L17
 578              	.L21:
 275:main.c        ****             case LIS3DH_CTRL_REG1_SF_25HZ: CHANGE_ADC_SF(40);   break;
 579              		.loc 1 275 0
ARM GAS  C:\Users\indya\AppData\Local\Temp\ccRaUxid.s 			page 16


 580 02ca 2820     		movs	r0, #40
 581 02cc FFF7FEFF 		bl	CHANGE_ADC_SF
 582              	.LVL112:
 583 02d0 02E0     		b	.L17
 584              	.L22:
 276:main.c        ****             case LIS3DH_CTRL_REG1_SF_50HZ: CHANGE_ADC_SF(20);   break;}
 585              		.loc 1 276 0
 586 02d2 1420     		movs	r0, #20
 587 02d4 FFF7FEFF 		bl	CHANGE_ADC_SF
 588              	.LVL113:
 589              	.L17:
 277:main.c        **** 
 278:main.c        ****         /* Changing Sensitivity  ******************************************************************
 279:main.c        ****         switch(OLD_FSR){
 590              		.loc 1 279 0
 591 02d8 902D     		cmp	r5, #144
 592 02da 0CD0     		beq	.L24
 593 02dc 02D8     		bhi	.L25
 594 02de 802D     		cmp	r5, #128
 595 02e0 05D0     		beq	.L26
 596 02e2 6EE0     		b	.L23
 597              	.L25:
 598 02e4 A02D     		cmp	r5, #160
 599 02e6 0AD0     		beq	.L27
 600 02e8 B02D     		cmp	r5, #176
 601 02ea 67D0     		beq	.L28
 602 02ec 69E0     		b	.L23
 603              	.L26:
 280:main.c        ****             case LIS3DH_CTRL_REG4_FSR_2G: Sensitivity   = 4;     break;
 604              		.loc 1 280 0
 605 02ee 0422     		movs	r2, #4
 606 02f0 2A4B     		ldr	r3, .L65+148
 607 02f2 1A80     		strh	r2, [r3]	@ movhi
 608 02f4 65E0     		b	.L23
 609              	.L24:
 281:main.c        ****             case LIS3DH_CTRL_REG4_FSR_4G: Sensitivity   = 8;     break;
 610              		.loc 1 281 0
 611 02f6 0822     		movs	r2, #8
 612 02f8 284B     		ldr	r3, .L65+148
 613 02fa 1A80     		strh	r2, [r3]	@ movhi
 614 02fc 61E0     		b	.L23
 615              	.L27:
 282:main.c        ****             case LIS3DH_CTRL_REG4_FSR_8G: Sensitivity   = 16;    break;
 616              		.loc 1 282 0
 617 02fe 1022     		movs	r2, #16
 618 0300 264B     		ldr	r3, .L65+148
 619 0302 1A80     		strh	r2, [r3]	@ movhi
 620 0304 5DE0     		b	.L23
 621              	.L66:
 622 0306 00BF     		.align	2
 623              	.L65:
 624 0308 00000000 		.word	SETUP_FSR_CHANGED
 625 030c 00000000 		.word	SETUP_SF_CHANGED
 626 0310 00000000 		.word	SETUP_AS_CHANGED
 627 0314 00000000 		.word	SETUP_BS_CHANGED
 628 0318 00000000 		.word	SETUP_FSR
 629 031c 00000000 		.word	SETUP_SF
ARM GAS  C:\Users\indya\AppData\Local\Temp\ccRaUxid.s 			page 17


 630 0320 00000000 		.word	FLAG_FSR
 631 0324 00000000 		.word	FLAG_SF
 632 0328 00000000 		.word	FLAG_AS
 633 032c 00000000 		.word	FLAG_BS
 634 0330 00000000 		.word	OPTION_FSR
 635 0334 00000000 		.word	OPTION_SF
 636 0338 00000000 		.word	OPTION_AS
 637 033c 00000000 		.word	StartAcquisition_flag
 638 0340 00000000 		.word	StartStream_flag
 639 0344 00000000 		.word	summary_ready
 640 0348 00000000 		.word	push_button_event
 641 034c 00000000 		.word	full_or_empty
 642 0350 00000000 		.word	SensorDataReady
 643 0354 00000000 		.word	Custom_ISR_RX
 644 0358 00000000 		.word	ISR_PB_LOW
 645 035c 00000000 		.word	ISR_PB_HIGH
 646 0360 00000000 		.word	Custom_FIFO_ISR
 647 0364 00000000 		.word	Custom_TIMER_ISR
 648 0368 00000000 		.word	.LC0
 649 036c 04000000 		.word	.LC1
 650 0370 40000000 		.word	.LC2
 651 0374 60000000 		.word	.LC3
 652 0378 94000000 		.word	.LC4
 653 037c C8000000 		.word	.LC5
 654 0380 FC000000 		.word	.LC6
 655 0384 30010000 		.word	.LC7
 656 0388 64010000 		.word	.LC8
 657 038c 98010000 		.word	.LC9
 658 0390 CC010000 		.word	.LC10
 659 0394 F8010000 		.word	.LC11
 660 0398 24020000 		.word	.LC12
 661 039c 00000000 		.word	Sensitivity
 662 03a0 64020000 		.word	.LC13
 663 03a4 90020000 		.word	.LC14
 664 03a8 CC020000 		.word	.LC15
 665 03ac 00030000 		.word	.LC16
 666 03b0 40030000 		.word	.LC17
 667 03b4 80030000 		.word	.LC18
 668 03b8 C0030000 		.word	.LC19
 669              	.L28:
 283:main.c        ****             case LIS3DH_CTRL_REG4_FSR_16G: Sensitivity  = 48;    break;}
 670              		.loc 1 283 0
 671 03bc 3022     		movs	r2, #48
 672 03be A04B     		ldr	r3, .L67
 673 03c0 1A80     		strh	r2, [r3]	@ movhi
 674              	.L23:
 284:main.c        **** 
 285:main.c        ****         /* Writing LIS3DH Registers ***************************************************************
 286:main.c        ****         error = I2C_Peripheral_WriteRegister(LIS3DH_DEVICE_ADDRESS,
 675              		.loc 1 286 0
 676 03c2 3A46     		mov	r2, r7
 677 03c4 2021     		movs	r1, #32
 678 03c6 1820     		movs	r0, #24
 679 03c8 FFF7FEFF 		bl	I2C_Peripheral_WriteRegister
 680              	.LVL114:
 287:main.c        ****                                              LIS3DH_CTRL_REG1,
 288:main.c        ****                                              OLD_SF);
ARM GAS  C:\Users\indya\AppData\Local\Temp\ccRaUxid.s 			page 18


 289:main.c        ****         error = I2C_Peripheral_WriteRegister(LIS3DH_DEVICE_ADDRESS,
 681              		.loc 1 289 0
 682 03cc 2A46     		mov	r2, r5
 683 03ce 2321     		movs	r1, #35
 684 03d0 1820     		movs	r0, #24
 685 03d2 FFF7FEFF 		bl	I2C_Peripheral_WriteRegister
 686              	.LVL115:
 290:main.c        ****                                              LIS3DH_CTRL_REG4,
 291:main.c        ****                                              OLD_FSR);
 292:main.c        **** 
 293:main.c        ****         /* Empting FIFO buffer ********************************************************************
 294:main.c        ****         error = I2C_Peripheral_WriteRegister(LIS3DH_DEVICE_ADDRESS,
 687              		.loc 1 294 0
 688 03d6 0022     		movs	r2, #0
 689 03d8 2E21     		movs	r1, #46
 690 03da 1820     		movs	r0, #24
 691 03dc FFF7FEFF 		bl	I2C_Peripheral_WriteRegister
 692              	.LVL116:
 295:main.c        ****                                              LIS3DH_FIFO_CTRL_REG,
 296:main.c        ****                                              LIS3DH_FIFO_CTRL_REG_BYPASS_MODE);
 297:main.c        ****         error = I2C_Peripheral_WriteRegister(LIS3DH_DEVICE_ADDRESS,
 693              		.loc 1 297 0
 694 03e0 4022     		movs	r2, #64
 695 03e2 2E21     		movs	r1, #46
 696 03e4 1820     		movs	r0, #24
 697 03e6 FFF7FEFF 		bl	I2C_Peripheral_WriteRegister
 698              	.LVL117:
 298:main.c        ****                                              LIS3DH_FIFO_CTRL_REG,
 299:main.c        ****                                              LIS3DH_FIFO_CTRL_REG_FIFO_MODE);
 300:main.c        **** 
 301:main.c        ****         /* Switching the right sensor *************************************************************
 302:main.c        ****         if(OLD_AS==0){AMux_Select(1);} // LDR
 699              		.loc 1 302 0
 700 03ea B9F1000F 		cmp	r9, #0
 701 03ee 02D1     		bne	.L29
 702              		.loc 1 302 0 is_stmt 0 discriminator 1
 703 03f0 0120     		movs	r0, #1
 704 03f2 FFF7FEFF 		bl	AMux_Select
 705              	.LVL118:
 706              	.L29:
 303:main.c        ****         if(OLD_AS==1){AMux_Select(0);} // POT
 707              		.loc 1 303 0 is_stmt 1
 708 03f6 B9F1010F 		cmp	r9, #1
 709 03fa 02D1     		bne	.L30
 710              		.loc 1 303 0 is_stmt 0 discriminator 1
 711 03fc 0020     		movs	r0, #0
 712 03fe FFF7FEFF 		bl	AMux_Select
 713              	.LVL119:
 714              	.L30:
 304:main.c        **** 
 305:main.c        ****         /* Starting or stopping the Acquisition ***************************************************
 306:main.c        ****         if(OLD_BS==0){
 715              		.loc 1 306 0 is_stmt 1
 716 0402 B8F1000F 		cmp	r8, #0
 717 0406 17D1     		bne	.L31
 307:main.c        ****             FLAG_BS = 0;
 718              		.loc 1 307 0
ARM GAS  C:\Users\indya\AppData\Local\Temp\ccRaUxid.s 			page 19


 719 0408 0024     		movs	r4, #0
 720              	.LVL120:
 721 040a 8E4B     		ldr	r3, .L67+4
 722 040c 1C70     		strb	r4, [r3]
 308:main.c        ****             StartAcquisition_flag = 0;
 723              		.loc 1 308 0
 724 040e 8E4B     		ldr	r3, .L67+8
 725 0410 1C70     		strb	r4, [r3]
 309:main.c        ****             Timer_sensor_Stop();
 726              		.loc 1 309 0
 727 0412 FFF7FEFF 		bl	Timer_sensor_Stop
 728              	.LVL121:
 310:main.c        ****             Timer_sensor_ReadStatusRegister();
 729              		.loc 1 310 0
 730 0416 FFF7FEFF 		bl	Timer_sensor_ReadStatusRegister
 731              	.LVL122:
 311:main.c        ****             error = I2C_Peripheral_WriteRegister(LIS3DH_DEVICE_ADDRESS,
 732              		.loc 1 311 0
 733 041a 2246     		mov	r2, r4
 734 041c 2221     		movs	r1, #34
 735 041e 1820     		movs	r0, #24
 736 0420 FFF7FEFF 		bl	I2C_Peripheral_WriteRegister
 737              	.LVL123:
 312:main.c        ****                                                  LIS3DH_CTRL_REG3,
 313:main.c        ****                                                  LIS3DH_CTRL_REG3_INT_DISABLED);
 314:main.c        ****             error = I2C_Peripheral_WriteRegister(LIS3DH_DEVICE_ADDRESS,
 738              		.loc 1 314 0
 739 0424 2246     		mov	r2, r4
 740 0426 2E21     		movs	r1, #46
 741 0428 1820     		movs	r0, #24
 742 042a FFF7FEFF 		bl	I2C_Peripheral_WriteRegister
 743              	.LVL124:
 315:main.c        ****                                                  LIS3DH_FIFO_CTRL_REG,
 316:main.c        ****                                                  LIS3DH_FIFO_CTRL_REG_BYPASS_MODE);
 317:main.c        ****             error = I2C_Peripheral_WriteRegister(LIS3DH_DEVICE_ADDRESS,
 744              		.loc 1 317 0
 745 042e 2246     		mov	r2, r4
 746 0430 2421     		movs	r1, #36
 747 0432 1820     		movs	r0, #24
 748 0434 FFF7FEFF 		bl	I2C_Peripheral_WriteRegister
 749              	.LVL125:
 750              	.L31:
 318:main.c        ****                                                  LIS3DH_CTRL_REG5,
 319:main.c        ****                                                  LIS3DH_CTRL_REG5_FIFO_DISABLE);
 320:main.c        **** 
 321:main.c        ****         }
 322:main.c        ****         if(OLD_BS==1){
 751              		.loc 1 322 0
 752 0438 B8F1010F 		cmp	r8, #1
 753 043c 1BD1     		bne	.L16
 323:main.c        ****             StartAcquisition_flag = 1;
 754              		.loc 1 323 0
 755 043e 0123     		movs	r3, #1
 756 0440 814A     		ldr	r2, .L67+8
 757 0442 1370     		strb	r3, [r2]
 324:main.c        ****             FLAG_BS = 1;
 758              		.loc 1 324 0
ARM GAS  C:\Users\indya\AppData\Local\Temp\ccRaUxid.s 			page 20


 759 0444 7F4A     		ldr	r2, .L67+4
 760 0446 1370     		strb	r3, [r2]
 325:main.c        ****             Timer_sensor_ReadStatusRegister();
 761              		.loc 1 325 0
 762 0448 FFF7FEFF 		bl	Timer_sensor_ReadStatusRegister
 763              	.LVL126:
 326:main.c        ****             Timer_sensor_Start();
 764              		.loc 1 326 0
 765 044c FFF7FEFF 		bl	Timer_sensor_Start
 766              	.LVL127:
 327:main.c        ****             error = I2C_Peripheral_WriteRegister(LIS3DH_DEVICE_ADDRESS,
 767              		.loc 1 327 0
 768 0450 0222     		movs	r2, #2
 769 0452 2221     		movs	r1, #34
 770 0454 1820     		movs	r0, #24
 771 0456 FFF7FEFF 		bl	I2C_Peripheral_WriteRegister
 772              	.LVL128:
 328:main.c        ****                                                  LIS3DH_CTRL_REG3,
 329:main.c        ****                                                  LIS3DH_CTRL_REG3_INT_ENABLE);
 330:main.c        ****             error = I2C_Peripheral_WriteRegister(LIS3DH_DEVICE_ADDRESS,
 773              		.loc 1 330 0
 774 045a 4022     		movs	r2, #64
 775 045c 2E21     		movs	r1, #46
 776 045e 1820     		movs	r0, #24
 777 0460 FFF7FEFF 		bl	I2C_Peripheral_WriteRegister
 778              	.LVL129:
 331:main.c        ****                                                  LIS3DH_FIFO_CTRL_REG,
 332:main.c        ****                                                  LIS3DH_FIFO_CTRL_REG_FIFO_MODE);
 333:main.c        ****             error = I2C_Peripheral_WriteRegister(LIS3DH_DEVICE_ADDRESS,
 779              		.loc 1 333 0
 780 0464 4022     		movs	r2, #64
 781 0466 2421     		movs	r1, #36
 782 0468 1820     		movs	r0, #24
 783 046a FFF7FEFF 		bl	I2C_Peripheral_WriteRegister
 784              	.LVL130:
 334:main.c        ****                                                  LIS3DH_CTRL_REG5,
 335:main.c        ****                                                  LIS3DH_CTRL_REG5_FIFO_ENABLE);
 336:main.c        ****             PWM_Start();
 785              		.loc 1 336 0
 786 046e FFF7FEFF 		bl	PWM_Start
 787              	.LVL131:
 337:main.c        ****             LED_ACQUISITION_ON_TOGGLE();
 788              		.loc 1 337 0
 789 0472 FFF7FEFF 		bl	LED_ACQUISITION_ON_TOGGLE
 790              	.LVL132:
 791              	.L16:
 338:main.c        ****         }
 339:main.c        **** 
 340:main.c        ****     }
 341:main.c        **** 
 342:main.c        ****     /**********************************************************************************************
 343:main.c        ****     /*                                            FIFO MODE INITIALIZATION                         
 344:main.c        ****     /**********************************************************************************************
 345:main.c        **** 
 346:main.c        ****     UART_PutString("\r\n");
 792              		.loc 1 346 0
 793 0476 754C     		ldr	r4, .L67+12
ARM GAS  C:\Users\indya\AppData\Local\Temp\ccRaUxid.s 			page 21


 794 0478 2046     		mov	r0, r4
 795 047a FFF7FEFF 		bl	UART_PutString
 796              	.LVL133:
 347:main.c        ****     UART_PutString("     Initializing FIFO mode...\r\n");
 797              		.loc 1 347 0
 798 047e 7448     		ldr	r0, .L67+16
 799 0480 FFF7FEFF 		bl	UART_PutString
 800              	.LVL134:
 348:main.c        ****     UART_PutString("\r\n");
 801              		.loc 1 348 0
 802 0484 2046     		mov	r0, r4
 803 0486 FFF7FEFF 		bl	UART_PutString
 804              	.LVL135:
 349:main.c        **** 
 350:main.c        ****     error = I2C_Peripheral_WriteRegister(LIS3DH_DEVICE_ADDRESS,
 805              		.loc 1 350 0
 806 048a 0222     		movs	r2, #2
 807 048c 2221     		movs	r1, #34
 808 048e 1820     		movs	r0, #24
 809 0490 FFF7FEFF 		bl	I2C_Peripheral_WriteRegister
 810              	.LVL136:
 351:main.c        ****                                          LIS3DH_CTRL_REG3,
 352:main.c        ****                                          LIS3DH_CTRL_REG3_INT_ENABLE);
 353:main.c        ****     if (error == NO_ERROR){UART_PutString("     Overrun interrupt                 ENABLED\r\n");}
 811              		.loc 1 353 0
 812 0494 10B9     		cbnz	r0, .L32
 813              		.loc 1 353 0 is_stmt 0 discriminator 1
 814 0496 6F48     		ldr	r0, .L67+20
 815              	.LVL137:
 816 0498 FFF7FEFF 		bl	UART_PutString
 817              	.LVL138:
 818              	.L32:
 354:main.c        **** 
 355:main.c        ****     error = I2C_Peripheral_WriteRegister(LIS3DH_DEVICE_ADDRESS,
 819              		.loc 1 355 0 is_stmt 1
 820 049c 4022     		movs	r2, #64
 821 049e 2E21     		movs	r1, #46
 822 04a0 1820     		movs	r0, #24
 823 04a2 FFF7FEFF 		bl	I2C_Peripheral_WriteRegister
 824              	.LVL139:
 356:main.c        ****                                          LIS3DH_FIFO_CTRL_REG,
 357:main.c        ****                                          LIS3DH_FIFO_CTRL_REG_FIFO_MODE);
 358:main.c        ****     if (error == NO_ERROR){UART_PutString("     FIFO mode                         SELECTED\r\n");}
 825              		.loc 1 358 0
 826 04a6 10B9     		cbnz	r0, .L33
 827              		.loc 1 358 0 is_stmt 0 discriminator 1
 828 04a8 6B48     		ldr	r0, .L67+24
 829              	.LVL140:
 830 04aa FFF7FEFF 		bl	UART_PutString
 831              	.LVL141:
 832              	.L33:
 359:main.c        **** 
 360:main.c        ****     error = I2C_Peripheral_WriteRegister(LIS3DH_DEVICE_ADDRESS,
 833              		.loc 1 360 0 is_stmt 1
 834 04ae 4022     		movs	r2, #64
 835 04b0 2421     		movs	r1, #36
 836 04b2 1820     		movs	r0, #24
ARM GAS  C:\Users\indya\AppData\Local\Temp\ccRaUxid.s 			page 22


 837 04b4 FFF7FEFF 		bl	I2C_Peripheral_WriteRegister
 838              	.LVL142:
 361:main.c        ****                                          LIS3DH_CTRL_REG5,
 362:main.c        ****                                          LIS3DH_CTRL_REG5_FIFO_ENABLE);
 363:main.c        ****     if (error == NO_ERROR){UART_PutString("     FIFO mode                         ENABLED\r\n");}
 839              		.loc 1 363 0
 840 04b8 10B9     		cbnz	r0, .L34
 841              		.loc 1 363 0 is_stmt 0 discriminator 1
 842 04ba 6848     		ldr	r0, .L67+28
 843              	.LVL143:
 844 04bc FFF7FEFF 		bl	UART_PutString
 845              	.LVL144:
 846              	.L34:
 364:main.c        **** 
 365:main.c        **** 
 366:main.c        **** 
 367:main.c        ****     /**********************************************************************************************
 368:main.c        ****     /*                                                 WELCOME PAGE                                
 369:main.c        ****     /**********************************************************************************************
 370:main.c        **** 
 371:main.c        ****                                                         WELCOME();
 847              		.loc 1 371 0 is_stmt 1
 848 04c0 FFF7FEFF 		bl	WELCOME
 849              	.LVL145:
 850              	.L59:
 372:main.c        **** 
 373:main.c        ****     /**********************************************************************************************
 374:main.c        ****     /*                                                INFINITE CYCLE                               
 375:main.c        ****     /**********************************************************************************************
 376:main.c        **** 
 377:main.c        ****     for(;;)
 378:main.c        ****     {
 379:main.c        **** 
 380:main.c        ****         /******************************************************************************************
 381:main.c        ****         /*                                           HAS BS SETUP BEEN CHANGED?                    
 382:main.c        ****         /******************************************************************************************
 383:main.c        **** 
 384:main.c        ****         if (SETUP_BS_CHANGED == 1){
 851              		.loc 1 384 0
 852 04c4 664B     		ldr	r3, .L67+32
 853 04c6 1B78     		ldrb	r3, [r3]	@ zero_extendqisi2
 854 04c8 DBB2     		uxtb	r3, r3
 855 04ca 012B     		cmp	r3, #1
 856 04cc 09D1     		bne	.L35
 385:main.c        ****             EEPROM_writeByte(EEPROM_OLD_BS_ADDRESS, FLAG_BS);
 857              		.loc 1 385 0
 858 04ce 5D4B     		ldr	r3, .L67+4
 859 04d0 1978     		ldrb	r1, [r3]	@ zero_extendqisi2
 860 04d2 0520     		movs	r0, #5
 861 04d4 FFF7FEFF 		bl	EEPROM_writeByte
 862              	.LVL146:
 386:main.c        ****             EEPROM_waitForWriteComplete();
 863              		.loc 1 386 0
 864 04d8 FFF7FEFF 		bl	EEPROM_waitForWriteComplete
 865              	.LVL147:
 387:main.c        ****             SETUP_BS_CHANGED = 0;
 866              		.loc 1 387 0
ARM GAS  C:\Users\indya\AppData\Local\Temp\ccRaUxid.s 			page 23


 867 04dc 0022     		movs	r2, #0
 868 04de 604B     		ldr	r3, .L67+32
 869 04e0 1A70     		strb	r2, [r3]
 870              	.L35:
 388:main.c        ****         }
 389:main.c        **** 
 390:main.c        ****         /******************************************************************************************
 391:main.c        ****         /*                                           HAS AS SETUP BEEN CHANGED?                    
 392:main.c        ****         /******************************************************************************************
 393:main.c        **** 
 394:main.c        ****         if (SETUP_AS_CHANGED == 1){
 871              		.loc 1 394 0
 872 04e2 604B     		ldr	r3, .L67+36
 873 04e4 1B78     		ldrb	r3, [r3]	@ zero_extendqisi2
 874 04e6 DBB2     		uxtb	r3, r3
 875 04e8 012B     		cmp	r3, #1
 876 04ea 0BD1     		bne	.L36
 395:main.c        ****             EEPROM_writeByte(EEPROM_OLD_AS_ADDRESS, OPTION_AS-1);
 877              		.loc 1 395 0
 878 04ec 5E4B     		ldr	r3, .L67+40
 879 04ee 1978     		ldrb	r1, [r3]	@ zero_extendqisi2
 880 04f0 0139     		subs	r1, r1, #1
 881 04f2 C9B2     		uxtb	r1, r1
 882 04f4 0420     		movs	r0, #4
 883 04f6 FFF7FEFF 		bl	EEPROM_writeByte
 884              	.LVL148:
 396:main.c        ****             EEPROM_waitForWriteComplete();
 885              		.loc 1 396 0
 886 04fa FFF7FEFF 		bl	EEPROM_waitForWriteComplete
 887              	.LVL149:
 397:main.c        ****             SETUP_AS_CHANGED = 0;
 888              		.loc 1 397 0
 889 04fe 0022     		movs	r2, #0
 890 0500 584B     		ldr	r3, .L67+36
 891 0502 1A70     		strb	r2, [r3]
 892              	.L36:
 398:main.c        ****         }
 399:main.c        **** 
 400:main.c        ****         /******************************************************************************************
 401:main.c        ****         /*                                          HAS FSR SETUP BEEN CHANGED?                    
 402:main.c        ****         /******************************************************************************************
 403:main.c        **** 
 404:main.c        ****         if (SETUP_FSR_CHANGED == 1){
 893              		.loc 1 404 0
 894 0504 594B     		ldr	r3, .L67+44
 895 0506 1B78     		ldrb	r3, [r3]	@ zero_extendqisi2
 896 0508 DBB2     		uxtb	r3, r3
 897 050a 012B     		cmp	r3, #1
 898 050c 3FD1     		bne	.L37
 405:main.c        **** 
 406:main.c        ****             error = I2C_Peripheral_WriteRegister(LIS3DH_DEVICE_ADDRESS,
 899              		.loc 1 406 0
 900 050e 584B     		ldr	r3, .L67+48
 901 0510 1A78     		ldrb	r2, [r3]	@ zero_extendqisi2
 902 0512 2321     		movs	r1, #35
 903 0514 1820     		movs	r0, #24
 904 0516 FFF7FEFF 		bl	I2C_Peripheral_WriteRegister
ARM GAS  C:\Users\indya\AppData\Local\Temp\ccRaUxid.s 			page 24


 905              	.LVL150:
 407:main.c        ****                                                  LIS3DH_CTRL_REG4,
 408:main.c        ****                                                  SETUP_FSR);
 409:main.c        **** 
 410:main.c        ****             if (error == NO_ERROR){
 906              		.loc 1 410 0
 907 051a 0446     		mov	r4, r0
 908 051c 90B9     		cbnz	r0, .L38
 411:main.c        ****                 EEPROM_writeByte(EEPROM_OLD_FSR_ADDRESS, SETUP_FSR);
 909              		.loc 1 411 0
 910 051e 544D     		ldr	r5, .L67+48
 911 0520 2978     		ldrb	r1, [r5]	@ zero_extendqisi2
 912 0522 0320     		movs	r0, #3
 913              	.LVL151:
 914 0524 FFF7FEFF 		bl	EEPROM_writeByte
 915              	.LVL152:
 412:main.c        ****                 EEPROM_waitForWriteComplete();
 916              		.loc 1 412 0
 917 0528 FFF7FEFF 		bl	EEPROM_waitForWriteComplete
 918              	.LVL153:
 413:main.c        ****                 sprintf(message, "     FSR CONTROL REGISTER 4 successfully written and saved as: 0x
 919              		.loc 1 413 0
 920 052c 2A78     		ldrb	r2, [r5]	@ zero_extendqisi2
 921 052e 5149     		ldr	r1, .L67+52
 922 0530 35A8     		add	r0, sp, #212
 923 0532 FFF7FEFF 		bl	sprintf
 924              	.LVL154:
 414:main.c        ****                 UART_PutString(message);
 925              		.loc 1 414 0
 926 0536 35A8     		add	r0, sp, #212
 927 0538 FFF7FEFF 		bl	UART_PutString
 928              	.LVL155:
 415:main.c        ****                 SETUP_FSR_CHANGED = 0;}
 929              		.loc 1 415 0
 930 053c 0022     		movs	r2, #0
 931 053e 4B4B     		ldr	r3, .L67+44
 932 0540 1A70     		strb	r2, [r3]
 933 0542 02E0     		b	.L39
 934              	.LVL156:
 935              	.L38:
 416:main.c        ****             else{UART_PutString("     Error occurred during I2C comm to set control register 4\r\n"
 936              		.loc 1 416 0
 937 0544 4C48     		ldr	r0, .L67+56
 938              	.LVL157:
 939 0546 FFF7FEFF 		bl	UART_PutString
 940              	.LVL158:
 941              	.L39:
 417:main.c        **** 
 418:main.c        ****             if (error == NO_ERROR){ // the FIFO is reset
 942              		.loc 1 418 0
 943 054a 2CB9     		cbnz	r4, .L40
 419:main.c        ****                 error = I2C_Peripheral_WriteRegister(LIS3DH_DEVICE_ADDRESS,
 944              		.loc 1 419 0
 945 054c 0022     		movs	r2, #0
 946 054e 2E21     		movs	r1, #46
 947 0550 1820     		movs	r0, #24
 948 0552 FFF7FEFF 		bl	I2C_Peripheral_WriteRegister
ARM GAS  C:\Users\indya\AppData\Local\Temp\ccRaUxid.s 			page 25


 949              	.LVL159:
 950 0556 0446     		mov	r4, r0
 951              	.LVL160:
 952              	.L40:
 420:main.c        ****                                                      LIS3DH_FIFO_CTRL_REG,
 421:main.c        ****                                                      LIS3DH_FIFO_CTRL_REG_BYPASS_MODE);}
 422:main.c        **** 
 423:main.c        ****             if (error == NO_ERROR){
 953              		.loc 1 423 0
 954 0558 24B9     		cbnz	r4, .L41
 424:main.c        ****                 error = I2C_Peripheral_WriteRegister(LIS3DH_DEVICE_ADDRESS,
 955              		.loc 1 424 0
 956 055a 4022     		movs	r2, #64
 957 055c 2E21     		movs	r1, #46
 958 055e 1820     		movs	r0, #24
 959 0560 FFF7FEFF 		bl	I2C_Peripheral_WriteRegister
 960              	.LVL161:
 961              	.L41:
 425:main.c        ****                                                      LIS3DH_FIFO_CTRL_REG,
 426:main.c        ****                                                      LIS3DH_FIFO_CTRL_REG_FIFO_MODE);}
 427:main.c        **** 
 428:main.c        ****             // Resetting pointer's value on EEPROM
 429:main.c        ****             UART_PutString("     Resetting EEPROM's pointer...");
 962              		.loc 1 429 0
 963 0564 4548     		ldr	r0, .L67+60
 964 0566 FFF7FEFF 		bl	UART_PutString
 965              	.LVL162:
 430:main.c        ****             EEPROM_writeByte(0x0000, (uint8_t) EEPROM_INITIAL_ADDRESS);
 966              		.loc 1 430 0
 967 056a 8021     		movs	r1, #128
 968 056c 0020     		movs	r0, #0
 969 056e FFF7FEFF 		bl	EEPROM_writeByte
 970              	.LVL163:
 431:main.c        ****             EEPROM_waitForWriteComplete();
 971              		.loc 1 431 0
 972 0572 FFF7FEFF 		bl	EEPROM_waitForWriteComplete
 973              	.LVL164:
 432:main.c        ****             EEPROM_writeByte(0x0001, (uint8_t) 0);
 974              		.loc 1 432 0
 975 0576 0021     		movs	r1, #0
 976 0578 0120     		movs	r0, #1
 977 057a FFF7FEFF 		bl	EEPROM_writeByte
 978              	.LVL165:
 433:main.c        ****             EEPROM_waitForWriteComplete();
 979              		.loc 1 433 0
 980 057e FFF7FEFF 		bl	EEPROM_waitForWriteComplete
 981              	.LVL166:
 434:main.c        ****             UART_PutString("     DONE\r\n");
 982              		.loc 1 434 0
 983 0582 3F48     		ldr	r0, .L67+64
 984 0584 FFF7FEFF 		bl	UART_PutString
 985              	.LVL167:
 435:main.c        **** 
 436:main.c        ****             full_or_empty = 0;
 986              		.loc 1 436 0
 987 0588 0022     		movs	r2, #0
 988 058a 3E4B     		ldr	r3, .L67+68
ARM GAS  C:\Users\indya\AppData\Local\Temp\ccRaUxid.s 			page 26


 989 058c 1A70     		strb	r2, [r3]
 990              	.L37:
 437:main.c        **** 
 438:main.c        **** 
 439:main.c        ****         }
 440:main.c        **** 
 441:main.c        ****         /******************************************************************************************
 442:main.c        ****         /*                                          HAS SF SETUP BEEN CHANGED?                     
 443:main.c        ****         /******************************************************************************************
 444:main.c        **** 
 445:main.c        ****         if (SETUP_SF_CHANGED == 1){
 991              		.loc 1 445 0
 992 058e 3E4B     		ldr	r3, .L67+72
 993 0590 1B78     		ldrb	r3, [r3]	@ zero_extendqisi2
 994 0592 DBB2     		uxtb	r3, r3
 995 0594 012B     		cmp	r3, #1
 996 0596 3FD1     		bne	.L42
 446:main.c        **** 
 447:main.c        ****             error = I2C_Peripheral_WriteRegister(LIS3DH_DEVICE_ADDRESS,
 997              		.loc 1 447 0
 998 0598 3C4B     		ldr	r3, .L67+76
 999 059a 1A78     		ldrb	r2, [r3]	@ zero_extendqisi2
 1000 059c 2021     		movs	r1, #32
 1001 059e 1820     		movs	r0, #24
 1002 05a0 FFF7FEFF 		bl	I2C_Peripheral_WriteRegister
 1003              	.LVL168:
 448:main.c        ****                                                  LIS3DH_CTRL_REG1,
 449:main.c        ****                                                  SETUP_SF);
 450:main.c        **** 
 451:main.c        ****             if (error == NO_ERROR){
 1004              		.loc 1 451 0
 1005 05a4 0446     		mov	r4, r0
 1006 05a6 90B9     		cbnz	r0, .L43
 452:main.c        ****                 EEPROM_writeByte(EEPROM_OLD_SF_ADDRESS, SETUP_SF);
 1007              		.loc 1 452 0
 1008 05a8 384D     		ldr	r5, .L67+76
 1009 05aa 2978     		ldrb	r1, [r5]	@ zero_extendqisi2
 1010 05ac 0220     		movs	r0, #2
 1011              	.LVL169:
 1012 05ae FFF7FEFF 		bl	EEPROM_writeByte
 1013              	.LVL170:
 453:main.c        ****                 EEPROM_waitForWriteComplete();
 1014              		.loc 1 453 0
 1015 05b2 FFF7FEFF 		bl	EEPROM_waitForWriteComplete
 1016              	.LVL171:
 454:main.c        ****                 sprintf(message, "     SF CONTROL REGISTER 1 successfully written and saved as: 0x%
 1017              		.loc 1 454 0
 1018 05b6 2A78     		ldrb	r2, [r5]	@ zero_extendqisi2
 1019 05b8 3549     		ldr	r1, .L67+80
 1020 05ba 35A8     		add	r0, sp, #212
 1021 05bc FFF7FEFF 		bl	sprintf
 1022              	.LVL172:
 455:main.c        ****                 UART_PutString(message);
 1023              		.loc 1 455 0
 1024 05c0 35A8     		add	r0, sp, #212
 1025 05c2 FFF7FEFF 		bl	UART_PutString
 1026              	.LVL173:
ARM GAS  C:\Users\indya\AppData\Local\Temp\ccRaUxid.s 			page 27


 456:main.c        ****                 SETUP_SF_CHANGED = 0;}
 1027              		.loc 1 456 0
 1028 05c6 0022     		movs	r2, #0
 1029 05c8 2F4B     		ldr	r3, .L67+72
 1030 05ca 1A70     		strb	r2, [r3]
 1031 05cc 02E0     		b	.L44
 1032              	.LVL174:
 1033              	.L43:
 457:main.c        ****             else{UART_PutString("     Error occurred during I2C comm to set control register 1\r\n"
 1034              		.loc 1 457 0
 1035 05ce 3148     		ldr	r0, .L67+84
 1036              	.LVL175:
 1037 05d0 FFF7FEFF 		bl	UART_PutString
 1038              	.LVL176:
 1039              	.L44:
 458:main.c        **** 
 459:main.c        **** 
 460:main.c        ****             if (error == NO_ERROR){ // the FIFO is reset
 1040              		.loc 1 460 0
 1041 05d4 2CB9     		cbnz	r4, .L45
 461:main.c        ****                 error = I2C_Peripheral_WriteRegister(LIS3DH_DEVICE_ADDRESS,
 1042              		.loc 1 461 0
 1043 05d6 0022     		movs	r2, #0
 1044 05d8 2E21     		movs	r1, #46
 1045 05da 1820     		movs	r0, #24
 1046 05dc FFF7FEFF 		bl	I2C_Peripheral_WriteRegister
 1047              	.LVL177:
 1048 05e0 0446     		mov	r4, r0
 1049              	.LVL178:
 1050              	.L45:
 462:main.c        ****                                                      LIS3DH_FIFO_CTRL_REG,
 463:main.c        ****                                                      LIS3DH_FIFO_CTRL_REG_BYPASS_MODE);}
 464:main.c        **** 
 465:main.c        ****             if (error == NO_ERROR){
 1051              		.loc 1 465 0
 1052 05e2 24B9     		cbnz	r4, .L46
 466:main.c        ****                 error = I2C_Peripheral_WriteRegister(LIS3DH_DEVICE_ADDRESS,
 1053              		.loc 1 466 0
 1054 05e4 4022     		movs	r2, #64
 1055 05e6 2E21     		movs	r1, #46
 1056 05e8 1820     		movs	r0, #24
 1057 05ea FFF7FEFF 		bl	I2C_Peripheral_WriteRegister
 1058              	.LVL179:
 1059              	.L46:
 467:main.c        ****                                                      LIS3DH_FIFO_CTRL_REG,
 468:main.c        ****                                                      LIS3DH_FIFO_CTRL_REG_FIFO_MODE);}
 469:main.c        **** 
 470:main.c        ****             // Resetting pointer's value on EEPROM
 471:main.c        ****             UART_PutString("     Resetting EEPROM's pointer...");
 1060              		.loc 1 471 0
 1061 05ee 2348     		ldr	r0, .L67+60
 1062 05f0 FFF7FEFF 		bl	UART_PutString
 1063              	.LVL180:
 472:main.c        ****             EEPROM_writeByte(0x0000, (uint8_t) EEPROM_INITIAL_ADDRESS);
 1064              		.loc 1 472 0
 1065 05f4 8021     		movs	r1, #128
 1066 05f6 0020     		movs	r0, #0
ARM GAS  C:\Users\indya\AppData\Local\Temp\ccRaUxid.s 			page 28


 1067 05f8 FFF7FEFF 		bl	EEPROM_writeByte
 1068              	.LVL181:
 473:main.c        ****             EEPROM_waitForWriteComplete();
 1069              		.loc 1 473 0
 1070 05fc FFF7FEFF 		bl	EEPROM_waitForWriteComplete
 1071              	.LVL182:
 474:main.c        ****             EEPROM_writeByte(0x0001, (uint8_t) 0);
 1072              		.loc 1 474 0
 1073 0600 0021     		movs	r1, #0
 1074 0602 0120     		movs	r0, #1
 1075 0604 FFF7FEFF 		bl	EEPROM_writeByte
 1076              	.LVL183:
 475:main.c        ****             EEPROM_waitForWriteComplete();
 1077              		.loc 1 475 0
 1078 0608 FFF7FEFF 		bl	EEPROM_waitForWriteComplete
 1079              	.LVL184:
 476:main.c        ****             UART_PutString("     DONE\r\n");
 1080              		.loc 1 476 0
 1081 060c 1C48     		ldr	r0, .L67+64
 1082 060e FFF7FEFF 		bl	UART_PutString
 1083              	.LVL185:
 477:main.c        **** 
 478:main.c        ****             full_or_empty = 0;
 1084              		.loc 1 478 0
 1085 0612 0022     		movs	r2, #0
 1086 0614 1B4B     		ldr	r3, .L67+68
 1087 0616 1A70     		strb	r2, [r3]
 1088              	.L42:
 479:main.c        **** 
 480:main.c        ****         }
 481:main.c        **** 
 482:main.c        ****         /******************************************************************************************
 483:main.c        ****         /*                                                 ACQUISITION AND EEPROM WRITING          
 484:main.c        ****         /******************************************************************************************
 485:main.c        ****         // If "b" has been pressed
 486:main.c        ****         if(StartAcquisition_flag==1){
 1089              		.loc 1 486 0
 1090 0618 0B4B     		ldr	r3, .L67+8
 1091 061a 1B78     		ldrb	r3, [r3]	@ zero_extendqisi2
 1092 061c DBB2     		uxtb	r3, r3
 1093 061e 012B     		cmp	r3, #1
 1094 0620 40F0D980 		bne	.L47
 487:main.c        ****             //If FIFO went in Overrun and we have collected 32 sensor data, we have to create packe
 488:main.c        ****             if(FlagFifo==1 && SensorDataReady == 1){
 1095              		.loc 1 488 0
 1096 0624 1C4B     		ldr	r3, .L67+88
 1097 0626 1B78     		ldrb	r3, [r3]	@ zero_extendqisi2
 1098 0628 DBB2     		uxtb	r3, r3
 1099 062a 012B     		cmp	r3, #1
 1100 062c 40F0D380 		bne	.L47
 1101              		.loc 1 488 0 is_stmt 0 discriminator 1
 1102 0630 1A4B     		ldr	r3, .L67+92
 1103 0632 1B78     		ldrb	r3, [r3]	@ zero_extendqisi2
 1104 0634 DBB2     		uxtb	r3, r3
 1105 0636 012B     		cmp	r3, #1
 1106 0638 40F0CD80 		bne	.L47
 1107 063c 87E0     		b	.L60
ARM GAS  C:\Users\indya\AppData\Local\Temp\ccRaUxid.s 			page 29


 1108              	.L68:
 1109 063e 00BF     		.align	2
 1110              	.L67:
 1111 0640 00000000 		.word	Sensitivity
 1112 0644 00000000 		.word	FLAG_BS
 1113 0648 00000000 		.word	StartAcquisition_flag
 1114 064c 00000000 		.word	.LC0
 1115 0650 00040000 		.word	.LC20
 1116 0654 24040000 		.word	.LC21
 1117 0658 58040000 		.word	.LC22
 1118 065c 8C040000 		.word	.LC23
 1119 0660 00000000 		.word	SETUP_BS_CHANGED
 1120 0664 00000000 		.word	SETUP_AS_CHANGED
 1121 0668 00000000 		.word	OPTION_AS
 1122 066c 00000000 		.word	SETUP_FSR_CHANGED
 1123 0670 00000000 		.word	SETUP_FSR
 1124 0674 C0040000 		.word	.LC24
 1125 0678 08050000 		.word	.LC25
 1126 067c 48050000 		.word	.LC26
 1127 0680 6C050000 		.word	.LC27
 1128 0684 00000000 		.word	full_or_empty
 1129 0688 00000000 		.word	SETUP_SF_CHANGED
 1130 068c 00000000 		.word	SETUP_SF
 1131 0690 78050000 		.word	.LC28
 1132 0694 C0050000 		.word	.LC29
 1133 0698 00000000 		.word	FlagFifo
 1134 069c 00000000 		.word	SensorDataReady
 1135              	.LVL186:
 1136              	.L49:
 489:main.c        **** 
 490:main.c        ****                 index=0;
 491:main.c        ****                 //192 Packets creation (128 of acceleration data and 64 of sensor data)
 492:main.c        ****                 for(i=0; i<32; i++){
 493:main.c        **** 
 494:main.c        ****                     Packets[index] = *(AccData+i*6+4)>>6 | *(AccData+i*6+5)<<2;
 1137              		.loc 1 494 0 is_stmt 1 discriminator 3
 1138 06a0 4700     		lsls	r7, r0, #1
 1139 06a2 3918     		adds	r1, r7, r0
 1140 06a4 4B00     		lsls	r3, r1, #1
 1141 06a6 1C1D     		adds	r4, r3, #4
 1142 06a8 B349     		ldr	r1, .L69+8
 1143 06aa 645C     		ldrb	r4, [r4, r1]	@ zero_extendqisi2
 1144 06ac 5D1D     		adds	r5, r3, #5
 1145 06ae 15F801C0 		ldrb	ip, [r5, r1]	@ zero_extendqisi2
 1146 06b2 42AE     		add	r6, sp, #264
 1147 06b4 06EB020E 		add	lr, r6, r2
 1148 06b8 A409     		lsrs	r4, r4, #6
 1149 06ba 44EA8C04 		orr	r4, r4, ip, lsl #2
 1150 06be 0EF8FC4C 		strb	r4, [lr, #-252]
 495:main.c        ****                     index++;
 1151              		.loc 1 495 0 discriminator 3
 1152 06c2 02F1010E 		add	lr, r2, #1
 1153 06c6 5FFA8EFE 		uxtb	lr, lr
 1154              	.LVL187:
 496:main.c        ****                     Packets[index] = (*(AccData+i*6+5)>>6) | ((*(AccData+i*6+2)&0xC0)>>4) | ((*(Acc
 1155              		.loc 1 496 0 discriminator 3
 1156 06ca 6D5C     		ldrb	r5, [r5, r1]	@ zero_extendqisi2
ARM GAS  C:\Users\indya\AppData\Local\Temp\ccRaUxid.s 			page 30


 1157 06cc 9C1C     		adds	r4, r3, #2
 1158 06ce 645C     		ldrb	r4, [r4, r1]	@ zero_extendqisi2
 1159 06d0 04F0C004 		and	r4, r4, #192
 1160 06d4 03F1030C 		add	ip, r3, #3
 1161 06d8 1CF80180 		ldrb	r8, [ip, r1]	@ zero_extendqisi2
 1162 06dc 08F00F08 		and	r8, r8, #15
 1163 06e0 B644     		add	lr, lr, r6
 1164              	.LVL188:
 1165 06e2 AD09     		lsrs	r5, r5, #6
 1166 06e4 45EA2414 		orr	r4, r5, r4, asr #4
 1167 06e8 44EA0814 		orr	r4, r4, r8, lsl #4
 1168 06ec 0EF8FC4C 		strb	r4, [lr, #-252]
 497:main.c        ****                     index++;
 1169              		.loc 1 497 0 discriminator 3
 1170 06f0 02F1020E 		add	lr, r2, #2
 1171 06f4 5FFA8EFE 		uxtb	lr, lr
 1172              	.LVL189:
 498:main.c        ****                     Packets[index] =((*(AccData+i*6+3)&0xF0)>>4) | (*(AccData+i*6)>>2) | (*(AccData
 1173              		.loc 1 498 0 discriminator 3
 1174 06f8 1CF80140 		ldrb	r4, [ip, r1]	@ zero_extendqisi2
 1175 06fc 5D5C     		ldrb	r5, [r3, r1]	@ zero_extendqisi2
 1176 06fe 03F1010C 		add	ip, r3, #1
 1177 0702 1CF80130 		ldrb	r3, [ip, r1]	@ zero_extendqisi2
 1178 0706 B644     		add	lr, lr, r6
 1179              	.LVL190:
 1180 0708 AD08     		lsrs	r5, r5, #2
 1181 070a 45EA1414 		orr	r4, r5, r4, lsr #4
 1182 070e 44EA8314 		orr	r4, r4, r3, lsl #6
 1183 0712 0EF8FC4C 		strb	r4, [lr, #-252]
 499:main.c        ****                     index++;
 1184              		.loc 1 499 0 discriminator 3
 1185 0716 D31C     		adds	r3, r2, #3
 1186 0718 DBB2     		uxtb	r3, r3
 1187              	.LVL191:
 500:main.c        ****                     Packets[index] =  AccData[i*6+1]>>2;
 1188              		.loc 1 500 0 discriminator 3
 1189 071a 11F80C10 		ldrb	r1, [r1, ip]	@ zero_extendqisi2
 1190 071e 3344     		add	r3, r3, r6
 1191              	.LVL192:
 1192 0720 8908     		lsrs	r1, r1, #2
 1193 0722 03F8FC1C 		strb	r1, [r3, #-252]
 501:main.c        ****                     index++;
 1194              		.loc 1 501 0 discriminator 3
 1195 0726 131D     		adds	r3, r2, #4
 1196 0728 DBB2     		uxtb	r3, r3
 1197              	.LVL193:
 502:main.c        ****                     Packets[index] =  SensBytes_old[i*2];
 1198              		.loc 1 502 0 discriminator 3
 1199 072a 9449     		ldr	r1, .L69+12
 1200 072c 11F81040 		ldrb	r4, [r1, r0, lsl #1]	@ zero_extendqisi2
 1201 0730 3344     		add	r3, r3, r6
 1202              	.LVL194:
 1203 0732 03F8FC4C 		strb	r4, [r3, #-252]
 503:main.c        ****                     index++;
 1204              		.loc 1 503 0 discriminator 3
 1205 0736 531D     		adds	r3, r2, #5
 1206 0738 DBB2     		uxtb	r3, r3
ARM GAS  C:\Users\indya\AppData\Local\Temp\ccRaUxid.s 			page 31


 1207              	.LVL195:
 504:main.c        ****                     Packets[index] =  SensBytes_old[i*2+1];
 1208              		.loc 1 504 0 discriminator 3
 1209 073a 0137     		adds	r7, r7, #1
 1210 073c C95D     		ldrb	r1, [r1, r7]	@ zero_extendqisi2
 1211 073e 3344     		add	r3, r3, r6
 1212              	.LVL196:
 1213 0740 03F8FC1C 		strb	r1, [r3, #-252]
 505:main.c        ****                     index++;
 1214              		.loc 1 505 0 discriminator 3
 1215 0744 0632     		adds	r2, r2, #6
 1216              	.LVL197:
 1217 0746 D2B2     		uxtb	r2, r2
 1218              	.LVL198:
 492:main.c        **** 
 1219              		.loc 1 492 0 discriminator 3
 1220 0748 0130     		adds	r0, r0, #1
 1221              	.LVL199:
 1222 074a C0B2     		uxtb	r0, r0
 1223              	.LVL200:
 1224 074c 01E0     		b	.L48
 1225              	.LVL201:
 1226              	.L60:
 1227 074e 0020     		movs	r0, #0
 1228 0750 0246     		mov	r2, r0
 1229              	.L48:
 1230              	.LVL202:
 492:main.c        **** 
 1231              		.loc 1 492 0 is_stmt 0 discriminator 1
 1232 0752 1F28     		cmp	r0, #31
 1233 0754 A4D9     		bls	.L49
 506:main.c        **** 
 507:main.c        ****                 }
 508:main.c        **** 
 509:main.c        ****                 /*I Check the adress where i want to start writing*/
 510:main.c        ****                 EEPROM_Adress_Pointer_L = EEPROM_readByte(0x0000);
 1234              		.loc 1 510 0 is_stmt 1
 1235 0756 0020     		movs	r0, #0
 1236              	.LVL203:
 1237 0758 FFF7FEFF 		bl	EEPROM_readByte
 1238              	.LVL204:
 1239 075c 0446     		mov	r4, r0
 1240              	.LVL205:
 511:main.c        ****                 EEPROM_Adress_Pointer_H = EEPROM_readByte(0x0001);
 1241              		.loc 1 511 0
 1242 075e 0120     		movs	r0, #1
 1243 0760 FFF7FEFF 		bl	EEPROM_readByte
 1244              	.LVL206:
 512:main.c        ****                 EEPROM_Adress = (uint16_t) EEPROM_Adress_Pointer_L | (EEPROM_Adress_Pointer_H<<8);
 1245              		.loc 1 512 0
 1246 0764 44EA0020 		orr	r0, r4, r0, lsl #8
 1247              	.LVL207:
 1248 0768 85B2     		uxth	r5, r0
 1249              	.LVL208:
 513:main.c        **** 
 514:main.c        ****                 /*I start writing if we have not reached cell 0x7FFF yet */
 515:main.c        ****                 if (EEPROM_Adress < EEPROM_DIMENSION){
ARM GAS  C:\Users\indya\AppData\Local\Temp\ccRaUxid.s 			page 32


 1250              		.loc 1 515 0
 1251 076a 47F6FE73 		movw	r3, #32766
 1252 076e 9D42     		cmp	r5, r3
 1253 0770 0FD9     		bls	.L61
 1254 0772 22E0     		b	.L63
 1255              	.LVL209:
 1256              	.L52:
 1257              	.LBB2:
 516:main.c        ****                     /*I have to write 192 Bytes = 3*64 Bytes = 3 Pages */
 517:main.c        ****                     for(uint16_t t=0;t<3;t++){
 518:main.c        **** 
 519:main.c        ****                         Adress_to_write = EEPROM_Adress + t*Bytes_for_page; //During every cycle we
 1258              		.loc 1 519 0 discriminator 3
 1259 0774 A101     		lsls	r1, r4, #6
 1260 0776 6E18     		adds	r6, r5, r1
 1261 0778 1FFA86FB 		uxth	fp, r6
 1262              	.LVL210:
 520:main.c        ****                         data_pointer = &Packets[t*Bytes_for_page]; //pointer pointing to data to be
 521:main.c        ****                         EEPROM_writePage(Adress_to_write, data_pointer, Bytes_for_page); //Writing 
 1263              		.loc 1 521 0 discriminator 3
 1264 077c 4022     		movs	r2, #64
 1265 077e 03AB     		add	r3, sp, #12
 1266 0780 1944     		add	r1, r1, r3
 1267              	.LVL211:
 1268 0782 5846     		mov	r0, fp
 1269 0784 FFF7FEFF 		bl	EEPROM_writePage
 1270              	.LVL212:
 522:main.c        ****                         EEPROM_waitForWriteComplete();
 1271              		.loc 1 522 0 discriminator 3
 1272 0788 FFF7FEFF 		bl	EEPROM_waitForWriteComplete
 1273              	.LVL213:
 517:main.c        **** 
 1274              		.loc 1 517 0 discriminator 3
 1275 078c 0134     		adds	r4, r4, #1
 1276              	.LVL214:
 1277 078e A4B2     		uxth	r4, r4
 1278              	.LVL215:
 1279 0790 00E0     		b	.L50
 1280              	.LVL216:
 1281              	.L61:
 1282              	.LBE2:
 1283 0792 0024     		movs	r4, #0
 1284              	.LVL217:
 1285              	.L50:
 1286              	.LBB3:
 517:main.c        **** 
 1287              		.loc 1 517 0 is_stmt 0 discriminator 1
 1288 0794 022C     		cmp	r4, #2
 1289 0796 EDD9     		bls	.L52
 1290              	.LBE3:
 523:main.c        ****                     }
 524:main.c        ****                     //EEPROM Address update
 525:main.c        ****                     EEPROM_Adress           = Adress_to_write + Bytes_for_page;
 1291              		.loc 1 525 0 is_stmt 1
 1292 0798 0BF14001 		add	r1, fp, #64
 1293 079c 89B2     		uxth	r1, r1
 1294              	.LVL218:
ARM GAS  C:\Users\indya\AppData\Local\Temp\ccRaUxid.s 			page 33


 526:main.c        ****                     EEPROM_Adress_Pointer_L = (uint8_t) (EEPROM_Adress & 0xFF);
 527:main.c        ****                     EEPROM_Adress_Pointer_H = (uint8_t) ((EEPROM_Adress & 0xFF00)>>8);
 1295              		.loc 1 527 0
 1296 079e 0C0A     		lsrs	r4, r1, #8
 1297              	.LVL219:
 528:main.c        **** 
 529:main.c        ****                     EEPROM_writeByte(0x0000, EEPROM_Adress_Pointer_L);
 1298              		.loc 1 529 0
 1299 07a0 C9B2     		uxtb	r1, r1
 1300              	.LVL220:
 1301 07a2 0020     		movs	r0, #0
 1302 07a4 FFF7FEFF 		bl	EEPROM_writeByte
 1303              	.LVL221:
 530:main.c        ****                     EEPROM_waitForWriteComplete();
 1304              		.loc 1 530 0
 1305 07a8 FFF7FEFF 		bl	EEPROM_waitForWriteComplete
 1306              	.LVL222:
 531:main.c        ****                     EEPROM_writeByte(0x0001, EEPROM_Adress_Pointer_H);
 1307              		.loc 1 531 0
 1308 07ac 2146     		mov	r1, r4
 1309 07ae 0120     		movs	r0, #1
 1310 07b0 FFF7FEFF 		bl	EEPROM_writeByte
 1311              	.LVL223:
 532:main.c        ****                     EEPROM_waitForWriteComplete();
 1312              		.loc 1 532 0
 1313 07b4 FFF7FEFF 		bl	EEPROM_waitForWriteComplete
 1314              	.LVL224:
 1315 07b8 04E0     		b	.L53
 1316              	.LVL225:
 1317              	.L63:
 533:main.c        ****                 }
 534:main.c        ****                 /* If EEPROM is full - LED blinking pattern */
 535:main.c        ****                 else{
 536:main.c        ****                     full_or_empty = 1;
 1318              		.loc 1 536 0
 1319 07ba 0122     		movs	r2, #1
 1320 07bc 704B     		ldr	r3, .L69+16
 1321 07be 1A70     		strb	r2, [r3]
 537:main.c        ****                     LED_EEPROM_FULL_TOGGLE();
 1322              		.loc 1 537 0
 1323 07c0 FFF7FEFF 		bl	LED_EEPROM_FULL_TOGGLE
 1324              	.LVL226:
 1325              	.L53:
 538:main.c        ****                 }
 539:main.c        **** 
 540:main.c        ****                 Timer_sensor_ReadStatusRegister();         //restart the time
 1326              		.loc 1 540 0
 1327 07c4 FFF7FEFF 		bl	Timer_sensor_ReadStatusRegister
 1328              	.LVL227:
 541:main.c        ****                 //variables reset
 542:main.c        ****                 counter_timer=0;
 1329              		.loc 1 542 0
 1330 07c8 0023     		movs	r3, #0
 1331 07ca 6E4A     		ldr	r2, .L69+20
 1332 07cc 1370     		strb	r3, [r2]
 543:main.c        ****                 FlagFifo=0;
 1333              		.loc 1 543 0
ARM GAS  C:\Users\indya\AppData\Local\Temp\ccRaUxid.s 			page 34


 1334 07ce 6E4A     		ldr	r2, .L69+24
 1335 07d0 1370     		strb	r3, [r2]
 544:main.c        ****                 SensorDataReady=0;
 1336              		.loc 1 544 0
 1337 07d2 6E4A     		ldr	r2, .L69+28
 1338 07d4 1370     		strb	r3, [r2]
 1339              	.L47:
 545:main.c        **** 
 546:main.c        ****             }
 547:main.c        ****         }
 548:main.c        **** 
 549:main.c        ****         /******************************************************************************************
 550:main.c        ****         /*                                                  STREAMING                              
 551:main.c        ****         /******************************************************************************************
 552:main.c        **** 
 553:main.c        ****         if(StartStream_flag==1){
 1340              		.loc 1 553 0
 1341 07d6 6E4B     		ldr	r3, .L69+32
 1342 07d8 1B78     		ldrb	r3, [r3]	@ zero_extendqisi2
 1343 07da DBB2     		uxtb	r3, r3
 1344 07dc 012B     		cmp	r3, #1
 1345 07de 40F0B880 		bne	.L54
 554:main.c        **** 
 555:main.c        ****             EEPROM_Adress_Pointer_L = EEPROM_readByte(0x0000);
 1346              		.loc 1 555 0
 1347 07e2 0020     		movs	r0, #0
 1348 07e4 FFF7FEFF 		bl	EEPROM_readByte
 1349              	.LVL228:
 1350 07e8 0546     		mov	r5, r0
 1351              	.LVL229:
 556:main.c        ****             EEPROM_Adress_Pointer_H = EEPROM_readByte(0x0001);
 1352              		.loc 1 556 0
 1353 07ea 0120     		movs	r0, #1
 1354 07ec FFF7FEFF 		bl	EEPROM_readByte
 1355              	.LVL230:
 557:main.c        ****             EEPROM_Adress = (uint16_t) EEPROM_Adress_Pointer_L | (EEPROM_Adress_Pointer_H<<8);
 1356              		.loc 1 557 0
 1357 07f0 45EA0020 		orr	r0, r5, r0, lsl #8
 1358              	.LVL231:
 1359 07f4 85B2     		uxth	r5, r0
 1360              	.LVL232:
 558:main.c        **** 
 559:main.c        ****             Adress_to_read = EEPROM_INITIAL_ADDRESS;
 1361              		.loc 1 559 0
 1362 07f6 8024     		movs	r4, #128
 560:main.c        **** 
 561:main.c        ****             while (Adress_to_read < EEPROM_Adress && StartStream_flag){
 1363              		.loc 1 561 0
 1364 07f8 A3E0     		b	.L55
 1365              	.LVL233:
 1366              	.L57:
 562:main.c        **** 
 563:main.c        ****                 UART_ClearTxBuffer(); // Clean Tx Buffer
 1367              		.loc 1 563 0
 1368 07fa FFF7FEFF 		bl	UART_ClearTxBuffer
 1369              	.LVL234:
 564:main.c        **** 
ARM GAS  C:\Users\indya\AppData\Local\Temp\ccRaUxid.s 			page 35


 565:main.c        ****                 EEPROM_readPage(Adress_to_read, Out_Data, DATA_PACKET_DIM);
 1370              		.loc 1 565 0
 1371 07fe 0622     		movs	r2, #6
 1372 0800 33A9     		add	r1, sp, #204
 1373 0802 2046     		mov	r0, r4
 1374 0804 FFF7FEFF 		bl	EEPROM_readPage
 1375              	.LVL235:
 566:main.c        **** 
 567:main.c        ****                 xl = (uint8_t)  (Out_Data[2]&0x30)<<2;
 1376              		.loc 1 567 0
 1377 0808 9DF8CE20 		ldrb	r2, [sp, #206]	@ zero_extendqisi2
 1378 080c 9100     		lsls	r1, r2, #2
 1379 080e 01F0C001 		and	r1, r1, #192
 1380              	.LVL236:
 568:main.c        ****                 xh = (uint8_t)  (Out_Data[2]&0xC0)>>6  |  (Out_Data[3]&0x3f)<<2;
 1381              		.loc 1 568 0
 1382 0812 9DF8CFE0 		ldrb	lr, [sp, #207]	@ zero_extendqisi2
 1383 0816 4FEA8E0E 		lsl	lr, lr, #2
 1384 081a 4EEA921E 		orr	lr, lr, r2, lsr #6
 1385 081e 5FFA8EFE 		uxtb	lr, lr
 1386              	.LVL237:
 569:main.c        ****                 yl = (uint8_t)  (Out_Data[1]&0x0C)<<4;
 1387              		.loc 1 569 0
 1388 0822 9DF8CD30 		ldrb	r3, [sp, #205]	@ zero_extendqisi2
 1389 0826 1F01     		lsls	r7, r3, #4
 1390 0828 07F0C007 		and	r7, r7, #192
 1391              	.LVL238:
 570:main.c        ****                 yh = (uint8_t) ((Out_Data[1]&0xF0)>>4) | ((Out_Data[2]&0x0F)<<4);
 1392              		.loc 1 570 0
 1393 082c 1201     		lsls	r2, r2, #4
 1394 082e 42EA1312 		orr	r2, r2, r3, lsr #4
 1395 0832 D2B2     		uxtb	r2, r2
 1396              	.LVL239:
 571:main.c        ****                 zl = (uint8_t)  (Out_Data[0]&0x03)<<6;
 1397              		.loc 1 571 0
 1398 0834 9DF8CCC0 		ldrb	ip, [sp, #204]	@ zero_extendqisi2
 1399 0838 4FEA8C10 		lsl	r0, ip, #6
 1400 083c C0B2     		uxtb	r0, r0
 1401              	.LVL240:
 572:main.c        ****                 zh = (uint8_t) ((Out_Data[0]&0xFC)>>2) |  (Out_Data[1]&0x03)<<6;
 1402              		.loc 1 572 0
 1403 083e 9B01     		lsls	r3, r3, #6
 1404 0840 43EA9C03 		orr	r3, r3, ip, lsr #2
 1405 0844 DBB2     		uxtb	r3, r3
 1406              	.LVL241:
 573:main.c        **** 
 574:main.c        ****                 x = (int16)((xh<<8)|(xl))>>6;               //X-axis acceleration in digit
 1407              		.loc 1 574 0
 1408 0846 41EA0E21 		orr	r1, r1, lr, lsl #8
 1409              	.LVL242:
 1410 084a 41F38918 		sbfx	r8, r1, #6, #10
 1411              	.LVL243:
 575:main.c        ****                 y = (int16)((yh <<8)|(yl))>>6;              //Y-axis acceleration in digit
 1412              		.loc 1 575 0
 1413 084e 47EA0227 		orr	r7, r7, r2, lsl #8
 1414              	.LVL244:
 1415 0852 47F38917 		sbfx	r7, r7, #6, #10
ARM GAS  C:\Users\indya\AppData\Local\Temp\ccRaUxid.s 			page 36


 1416              	.LVL245:
 576:main.c        ****                 z = (int16)((zh <<8)|zl)>>6;                //Z-axis acceleration in digit
 1417              		.loc 1 576 0
 1418 0856 40EA0320 		orr	r0, r0, r3, lsl #8
 1419              	.LVL246:
 577:main.c        **** 
 578:main.c        ****                 z_uart = (int16_t) (((float32)z)*Sensitivity*0.981 + 0.5);
 1420              		.loc 1 578 0
 1421 085a 40F38910 		sbfx	r0, r0, #6, #10
 1422              	.LVL247:
 1423 085e FFF7FEFF 		bl	__aeabi_i2f
 1424              	.LVL248:
 1425 0862 8146     		mov	r9, r0
 1426 0864 4B4E     		ldr	r6, .L69+36
 1427 0866 3088     		ldrh	r0, [r6]
 1428 0868 00B2     		sxth	r0, r0
 1429 086a FFF7FEFF 		bl	__aeabi_i2f
 1430              	.LVL249:
 1431 086e 4946     		mov	r1, r9
 1432 0870 FFF7FEFF 		bl	__aeabi_fmul
 1433              	.LVL250:
 1434 0874 FFF7FEFF 		bl	__aeabi_f2d
 1435              	.LVL251:
 1436 0878 3DA3     		adr	r3, .L69
 1437 087a D3E90023 		ldrd	r2, [r3]
 1438 087e FFF7FEFF 		bl	__aeabi_dmul
 1439              	.LVL252:
 1440 0882 0022     		movs	r2, #0
 1441 0884 444B     		ldr	r3, .L69+40
 1442 0886 FFF7FEFF 		bl	__aeabi_dadd
 1443              	.LVL253:
 1444 088a FFF7FEFF 		bl	__aeabi_d2iz
 1445              	.LVL254:
 1446 088e 0FFA80F9 		sxth	r9, r0
 1447              	.LVL255:
 579:main.c        ****                 y_uart = (int16_t) (((float32)y)*Sensitivity*0.981 + 0.5);
 1448              		.loc 1 579 0
 1449 0892 3846     		mov	r0, r7
 1450 0894 FFF7FEFF 		bl	__aeabi_i2f
 1451              	.LVL256:
 1452 0898 0746     		mov	r7, r0
 1453              	.LVL257:
 1454 089a 3088     		ldrh	r0, [r6]
 1455 089c 00B2     		sxth	r0, r0
 1456 089e FFF7FEFF 		bl	__aeabi_i2f
 1457              	.LVL258:
 1458 08a2 3946     		mov	r1, r7
 1459 08a4 FFF7FEFF 		bl	__aeabi_fmul
 1460              	.LVL259:
 1461 08a8 FFF7FEFF 		bl	__aeabi_f2d
 1462              	.LVL260:
 1463 08ac 30A3     		adr	r3, .L69
 1464 08ae D3E90023 		ldrd	r2, [r3]
 1465 08b2 FFF7FEFF 		bl	__aeabi_dmul
 1466              	.LVL261:
 1467 08b6 0022     		movs	r2, #0
 1468 08b8 374B     		ldr	r3, .L69+40
ARM GAS  C:\Users\indya\AppData\Local\Temp\ccRaUxid.s 			page 37


 1469 08ba FFF7FEFF 		bl	__aeabi_dadd
 1470              	.LVL262:
 1471 08be FFF7FEFF 		bl	__aeabi_d2iz
 1472              	.LVL263:
 1473 08c2 07B2     		sxth	r7, r0
 1474              	.LVL264:
 580:main.c        ****                 x_uart = (int16_t) (((float32)x)*Sensitivity*0.981 + 0.5);
 1475              		.loc 1 580 0
 1476 08c4 4046     		mov	r0, r8
 1477 08c6 FFF7FEFF 		bl	__aeabi_i2f
 1478              	.LVL265:
 1479 08ca 8046     		mov	r8, r0
 1480              	.LVL266:
 1481 08cc 3088     		ldrh	r0, [r6]
 1482 08ce 00B2     		sxth	r0, r0
 1483 08d0 FFF7FEFF 		bl	__aeabi_i2f
 1484              	.LVL267:
 1485 08d4 4146     		mov	r1, r8
 1486 08d6 FFF7FEFF 		bl	__aeabi_fmul
 1487              	.LVL268:
 1488 08da FFF7FEFF 		bl	__aeabi_f2d
 1489              	.LVL269:
 1490 08de 24A3     		adr	r3, .L69
 1491 08e0 D3E90023 		ldrd	r2, [r3]
 1492 08e4 FFF7FEFF 		bl	__aeabi_dmul
 1493              	.LVL270:
 1494 08e8 0022     		movs	r2, #0
 1495 08ea 2B4B     		ldr	r3, .L69+40
 1496 08ec FFF7FEFF 		bl	__aeabi_dadd
 1497              	.LVL271:
 1498 08f0 FFF7FEFF 		bl	__aeabi_d2iz
 1499              	.LVL272:
 1500 08f4 00B2     		sxth	r0, r0
 1501              	.LVL273:
 581:main.c        **** 
 582:main.c        ****                 UART_OutArray[1] = (uint8_t)(z_uart & 0xFF);     //LSB Z
 1502              		.loc 1 582 0
 1503 08f6 8DF80190 		strb	r9, [sp, #1]
 583:main.c        ****                 UART_OutArray[2] = (uint8_t)(z_uart >>8);        //MSB Z
 1504              		.loc 1 583 0
 1505 08fa C9F30729 		ubfx	r9, r9, #8, #8
 1506              	.LVL274:
 1507 08fe 8DF80290 		strb	r9, [sp, #2]
 584:main.c        ****                 UART_OutArray[3] = (uint8_t)(y_uart & 0xFF);     //LSB Y
 1508              		.loc 1 584 0
 1509 0902 8DF80370 		strb	r7, [sp, #3]
 585:main.c        ****                 UART_OutArray[4] = (uint8_t)(y_uart >>8);        //MSB Y
 1510              		.loc 1 585 0
 1511 0906 C7F30727 		ubfx	r7, r7, #8, #8
 1512              	.LVL275:
 1513 090a 8DF80470 		strb	r7, [sp, #4]
 586:main.c        ****                 UART_OutArray[5] = (uint8_t)(x_uart & 0xFF);     //LSB Z
 1514              		.loc 1 586 0
 1515 090e 8DF80500 		strb	r0, [sp, #5]
 587:main.c        ****                 UART_OutArray[6] = (uint8_t)(x_uart >>8);        //MSB Z
 1516              		.loc 1 587 0
 1517 0912 C0F30720 		ubfx	r0, r0, #8, #8
ARM GAS  C:\Users\indya\AppData\Local\Temp\ccRaUxid.s 			page 38


 1518              	.LVL276:
 1519 0916 8DF80600 		strb	r0, [sp, #6]
 588:main.c        ****                 UART_OutArray[7] = Out_Data[4];                   //LSB of sensor
 1520              		.loc 1 588 0
 1521 091a 9DF8D030 		ldrb	r3, [sp, #208]	@ zero_extendqisi2
 1522 091e 8DF80730 		strb	r3, [sp, #7]
 589:main.c        ****                 UART_OutArray[8] = Out_Data[5];                   //MSB of sensor
 1523              		.loc 1 589 0
 1524 0922 9DF8D130 		ldrb	r3, [sp, #209]	@ zero_extendqisi2
 1525 0926 8DF80830 		strb	r3, [sp, #8]
 590:main.c        **** 
 591:main.c        ****                 UART_PutArray(UART_OutArray, UART_PACKET_DIM);
 1526              		.loc 1 591 0
 1527 092a 0A21     		movs	r1, #10
 1528 092c 6846     		mov	r0, sp
 1529 092e FFF7FEFF 		bl	UART_PutArray
 1530              	.LVL277:
 592:main.c        ****                 CyDelay(10);                                // 10ms
 1531              		.loc 1 592 0
 1532 0932 0A20     		movs	r0, #10
 1533 0934 FFF7FEFF 		bl	CyDelay
 1534              	.LVL278:
 593:main.c        **** 
 594:main.c        ****                 Adress_to_read=Adress_to_read +6;
 1535              		.loc 1 594 0
 1536 0938 0634     		adds	r4, r4, #6
 1537              	.LVL279:
 1538 093a A4B2     		uxth	r4, r4
 1539              	.LVL280:
 595:main.c        **** 
 596:main.c        ****                 if(Adress_to_read >= EEPROM_Adress){
 1540              		.loc 1 596 0
 1541 093c A542     		cmp	r5, r4
 1542 093e 00D8     		bhi	.L55
 597:main.c        ****                     Adress_to_read = EEPROM_INITIAL_ADDRESS;
 1543              		.loc 1 597 0
 1544 0940 8024     		movs	r4, #128
 1545              	.LVL281:
 1546              	.L55:
 561:main.c        **** 
 1547              		.loc 1 561 0
 1548 0942 AC42     		cmp	r4, r5
 1549 0944 05D2     		bcs	.L54
 561:main.c        **** 
 1550              		.loc 1 561 0 is_stmt 0 discriminator 1
 1551 0946 124B     		ldr	r3, .L69+32
 1552 0948 1B78     		ldrb	r3, [r3]	@ zero_extendqisi2
 1553 094a 13F0FF0F 		tst	r3, #255
 1554 094e 7FF454AF 		bne	.L57
 1555              	.LVL282:
 1556              	.L54:
 598:main.c        ****                 }
 599:main.c        ****             }
 600:main.c        **** 
 601:main.c        ****         }
 602:main.c        **** 
 603:main.c        **** 
ARM GAS  C:\Users\indya\AppData\Local\Temp\ccRaUxid.s 			page 39


 604:main.c        ****     /**********************************************************************************************
 605:main.c        ****     /*                                               USER INTERFACE                                
 606:main.c        ****     /**********************************************************************************************
 607:main.c        **** 
 608:main.c        ****         if(summary_ready==1){
 1557              		.loc 1 608 0 is_stmt 1
 1558 0952 124B     		ldr	r3, .L69+44
 1559 0954 1B78     		ldrb	r3, [r3]	@ zero_extendqisi2
 1560 0956 DBB2     		uxtb	r3, r3
 1561 0958 012B     		cmp	r3, #1
 1562 095a 04D1     		bne	.L58
 609:main.c        ****             INFO();
 1563              		.loc 1 609 0
 1564 095c FFF7FEFF 		bl	INFO
 1565              	.LVL283:
 610:main.c        ****             summary_ready=0;
 1566              		.loc 1 610 0
 1567 0960 0022     		movs	r2, #0
 1568 0962 0E4B     		ldr	r3, .L69+44
 1569 0964 1A70     		strb	r2, [r3]
 1570              	.L58:
 611:main.c        ****         }
 612:main.c        **** 
 613:main.c        ****         PB_INFO(push_button_event);
 1571              		.loc 1 613 0
 1572 0966 0E4B     		ldr	r3, .L69+48
 1573 0968 1878     		ldrb	r0, [r3]	@ zero_extendqisi2
 1574 096a FFF7FEFF 		bl	PB_INFO
 1575              	.LVL284:
 614:main.c        ****     }
 1576              		.loc 1 614 0
 1577 096e A9E5     		b	.L59
 1578              	.L70:
 1579              		.align	3
 1580              	.L69:
 1581 0970 3108AC1C 		.word	481036337
 1582 0974 5A64EF3F 		.word	1072653402
 1583 0978 00000000 		.word	AccData
 1584 097c 00000000 		.word	SensBytes_old
 1585 0980 00000000 		.word	full_or_empty
 1586 0984 00000000 		.word	counter_timer
 1587 0988 00000000 		.word	FlagFifo
 1588 098c 00000000 		.word	SensorDataReady
 1589 0990 00000000 		.word	StartStream_flag
 1590 0994 00000000 		.word	Sensitivity
 1591 0998 0000E03F 		.word	1071644672
 1592 099c 00000000 		.word	summary_ready
 1593 09a0 00000000 		.word	push_button_event
 1594              		.cfi_endproc
 1595              	.LFE64:
 1596              		.size	main, .-main
 1597              		.comm	SETUP_SF,1,1
 1598              		.comm	SETUP_FSR,1,1
 1599              		.comm	SETUP_SF_CHANGED,1,1
 1600              		.comm	SETUP_FSR_CHANGED,1,1
 1601              		.comm	SETUP_AS_CHANGED,1,1
 1602              		.comm	SETUP_BS_CHANGED,1,1
ARM GAS  C:\Users\indya\AppData\Local\Temp\ccRaUxid.s 			page 40


 1603              		.comm	push_button_event,1,1
 1604              		.comm	summary_ready,1,1
 1605              		.comm	OPTION_AS,1,1
 1606              		.comm	OPTION_SF,1,1
 1607              		.comm	OPTION_FSR,1,1
 1608              		.comm	FLAG_BS,1,1
 1609              		.comm	FLAG_AS,1,1
 1610              		.comm	FLAG_SF,1,1
 1611              		.comm	FLAG_FSR,1,1
 1612              		.comm	StartStream_flag,1,1
 1613              		.comm	StartAcquisition_flag,1,1
 1614              		.comm	elapsed_time,2,2
 1615              		.comm	elapsed_time_string,64,4
 1616              		.comm	full_or_empty,1,1
 1617              		.comm	Sensitivity,2,2
 1618              		.comm	SensorDataReady,1,1
 1619              		.comm	SensBytes_old,64,4
 1620              		.comm	SensBytes,64,4
 1621              		.comm	SensData,64,4
 1622              		.comm	CountSensor,1,1
 1623              		.comm	counter_timer,1,1
 1624              		.comm	FlagFifo,1,1
 1625              		.comm	AccData2,192,4
 1626              		.comm	AccData,192,4
 1627              		.section	.rodata.str1.4,"aMS",%progbits,1
 1628              		.align	2
 1629              	.LC0:
 1630 0000 0D0A00   		.ascii	"\015\012\000"
 1631 0003 00       		.space	1
 1632              	.LC1:
 1633 0004 20202020 		.ascii	"     EEPROM will be written starting from address: "
 1633      20454550 
 1633      524F4D20 
 1633      77696C6C 
 1633      20626520 
 1634 0037 30782578 		.ascii	"0x%x\015\012\000"
 1634      0D0A00
 1635 003e 0000     		.space	2
 1636              	.LC2:
 1637 0040 20202020 		.ascii	"     Retriving old setup...\015\012\000"
 1637      20526574 
 1637      72697669 
 1637      6E67206F 
 1637      6C642073 
 1638 005e 0000     		.space	2
 1639              	.LC3:
 1640 0060 20202020 		.ascii	"     Old Sampling frequency            CORRUPTED\015"
 1640      204F6C64 
 1640      2053616D 
 1640      706C696E 
 1640      67206672 
 1641 0091 0A00     		.ascii	"\012\000"
 1642 0093 00       		.space	1
 1643              	.LC4:
 1644 0094 20202020 		.ascii	"     Old additional sensor      0x%02X RETRIVED\015"
 1644      204F6C64 
 1644      20616464 
ARM GAS  C:\Users\indya\AppData\Local\Temp\ccRaUxid.s 			page 41


 1644      6974696F 
 1644      6E616C20 
 1645 00c4 0A00     		.ascii	"\012\000"
 1646 00c6 0000     		.space	2
 1647              	.LC5:
 1648 00c8 20202020 		.ascii	"     Old full scale range              CORRUPTED\015"
 1648      204F6C64 
 1648      2066756C 
 1648      6C207363 
 1648      616C6520 
 1649 00f9 0A00     		.ascii	"\012\000"
 1650 00fb 00       		.space	1
 1651              	.LC6:
 1652 00fc 20202020 		.ascii	"     Old full scale range       0x%02X RETRIVED\015"
 1652      204F6C64 
 1652      2066756C 
 1652      6C207363 
 1652      616C6520 
 1653 012c 0A00     		.ascii	"\012\000"
 1654 012e 0000     		.space	2
 1655              	.LC7:
 1656 0130 20202020 		.ascii	"     Old additional sensor             CORRUPTED\015"
 1656      204F6C64 
 1656      20616464 
 1656      6974696F 
 1656      6E616C20 
 1657 0161 0A00     		.ascii	"\012\000"
 1658 0163 00       		.space	1
 1659              	.LC8:
 1660 0164 20202020 		.ascii	"     Old start/stop condition          CORRUPTED\015"
 1660      204F6C64 
 1660      20737461 
 1660      72742F73 
 1660      746F7020 
 1661 0195 0A00     		.ascii	"\012\000"
 1662 0197 00       		.space	1
 1663              	.LC9:
 1664 0198 20202020 		.ascii	"     Old start/stop condition   0x%02X RETRIVED\015"
 1664      204F6C64 
 1664      20737461 
 1664      72742F73 
 1664      746F7020 
 1665 01c8 0A00     		.ascii	"\012\000"
 1666 01ca 0000     		.space	2
 1667              	.LC10:
 1668 01cc 20202020 		.ascii	"     DEFAULT Start/Stop cond.   : STOP \015\012\000"
 1668      20444546 
 1668      41554C54 
 1668      20537461 
 1668      72742F53 
 1669 01f6 0000     		.space	2
 1670              	.LC11:
 1671 01f8 20202020 		.ascii	"     DEFAULT sampling frequency : 1Hz \015\012\000"
 1671      20444546 
 1671      41554C54 
 1671      2073616D 
 1671      706C696E 
ARM GAS  C:\Users\indya\AppData\Local\Temp\ccRaUxid.s 			page 42


 1672 0221 000000   		.space	3
 1673              	.LC12:
 1674 0224 20202020 		.ascii	"     Error occurred setting the default sampling fr"
 1674      20457272 
 1674      6F72206F 
 1674      63637572 
 1674      72656420 
 1675 0257 65717565 		.ascii	"equency \015\012\000"
 1675      6E637920 
 1675      0D0A00
 1676 0262 0000     		.space	2
 1677              	.LC13:
 1678 0264 20202020 		.ascii	"     DEFAULT full scale range   : +-2g \015\012\000"
 1678      20444546 
 1678      41554C54 
 1678      2066756C 
 1678      6C207363 
 1679 028e 0000     		.space	2
 1680              	.LC14:
 1681 0290 20202020 		.ascii	"     Error occurred setting the default full scale "
 1681      20457272 
 1681      6F72206F 
 1681      63637572 
 1681      72656420 
 1682 02c3 72616E67 		.ascii	"range \015\012\000"
 1682      65200D0A 
 1682      00
 1683              	.LC15:
 1684 02cc 20202020 		.ascii	"     DEFAULT additional sensor  : Potentiometer \015"
 1684      20444546 
 1684      41554C54 
 1684      20616464 
 1684      6974696F 
 1685 02fd 0A00     		.ascii	"\012\000"
 1686 02ff 00       		.space	1
 1687              	.LC16:
 1688 0300 20202020 		.ascii	"     Sampling frequency                SUCCESSFULLY"
 1688      2053616D 
 1688      706C696E 
 1688      67206672 
 1688      65717565 
 1689 0333 20534156 		.ascii	" SAVED \015\012\000"
 1689      4544200D 
 1689      0A00
 1690 033d 000000   		.space	3
 1691              	.LC17:
 1692 0340 20202020 		.ascii	"     Full scale range                  SUCCESSFULLY"
 1692      2046756C 
 1692      6C207363 
 1692      616C6520 
 1692      72616E67 
 1693 0373 20534156 		.ascii	" SAVED \015\012\000"
 1693      4544200D 
 1693      0A00
 1694 037d 000000   		.space	3
 1695              	.LC18:
 1696 0380 20202020 		.ascii	"     Additional sensor                 SUCCESSFULLY"
ARM GAS  C:\Users\indya\AppData\Local\Temp\ccRaUxid.s 			page 43


 1696      20416464 
 1696      6974696F 
 1696      6E616C20 
 1696      73656E73 
 1697 03b3 20534156 		.ascii	" SAVED \015\012\000"
 1697      4544200D 
 1697      0A00
 1698 03bd 000000   		.space	3
 1699              	.LC19:
 1700 03c0 20202020 		.ascii	"     Start/stop condition              SUCCESSFULLY"
 1700      20537461 
 1700      72742F73 
 1700      746F7020 
 1700      636F6E64 
 1701 03f3 20534156 		.ascii	" SAVED \015\012\000"
 1701      4544200D 
 1701      0A00
 1702 03fd 000000   		.space	3
 1703              	.LC20:
 1704 0400 20202020 		.ascii	"     Initializing FIFO mode...\015\012\000"
 1704      20496E69 
 1704      7469616C 
 1704      697A696E 
 1704      67204649 
 1705 0421 000000   		.space	3
 1706              	.LC21:
 1707 0424 20202020 		.ascii	"     Overrun interrupt                 ENABLED\015\012"
 1707      204F7665 
 1707      7272756E 
 1707      20696E74 
 1707      65727275 
 1708 0454 00       		.ascii	"\000"
 1709 0455 000000   		.space	3
 1710              	.LC22:
 1711 0458 20202020 		.ascii	"     FIFO mode                         SELECTED\015"
 1711      20464946 
 1711      4F206D6F 
 1711      64652020 
 1711      20202020 
 1712 0488 0A00     		.ascii	"\012\000"
 1713 048a 0000     		.space	2
 1714              	.LC23:
 1715 048c 20202020 		.ascii	"     FIFO mode                         ENABLED\015\012"
 1715      20464946 
 1715      4F206D6F 
 1715      64652020 
 1715      20202020 
 1716 04bc 00       		.ascii	"\000"
 1717 04bd 000000   		.space	3
 1718              	.LC24:
 1719 04c0 20202020 		.ascii	"     FSR CONTROL REGISTER 4 successfully written an"
 1719      20465352 
 1719      20434F4E 
 1719      54524F4C 
 1719      20524547 
 1720 04f3 64207361 		.ascii	"d saved as: 0x%02X\015\012\000"
 1720      76656420 
ARM GAS  C:\Users\indya\AppData\Local\Temp\ccRaUxid.s 			page 44


 1720      61733A20 
 1720      30782530 
 1720      32580D0A 
 1721              	.LC25:
 1722 0508 20202020 		.ascii	"     Error occurred during I2C comm to set control "
 1722      20457272 
 1722      6F72206F 
 1722      63637572 
 1722      72656420 
 1723 053b 72656769 		.ascii	"register 4\015\012\000"
 1723      73746572 
 1723      20340D0A 
 1723      00
 1724              	.LC26:
 1725 0548 20202020 		.ascii	"     Resetting EEPROM's pointer...\000"
 1725      20526573 
 1725      65747469 
 1725      6E672045 
 1725      4550524F 
 1726 056b 00       		.space	1
 1727              	.LC27:
 1728 056c 20202020 		.ascii	"     DONE\015\012\000"
 1728      20444F4E 
 1728      450D0A00 
 1729              	.LC28:
 1730 0578 20202020 		.ascii	"     SF CONTROL REGISTER 1 successfully written and"
 1730      20534620 
 1730      434F4E54 
 1730      524F4C20 
 1730      52454749 
 1731 05ab 20736176 		.ascii	" saved as: 0x%02X\015\012\000"
 1731      65642061 
 1731      733A2030 
 1731      78253032 
 1731      580D0A00 
 1732 05bf 00       		.space	1
 1733              	.LC29:
 1734 05c0 20202020 		.ascii	"     Error occurred during I2C comm to set control "
 1734      20457272 
 1734      6F72206F 
 1734      63637572 
 1734      72656420 
 1735 05f3 72656769 		.ascii	"register 1\015\012\000"
 1735      73746572 
 1735      20310D0A 
 1735      00
 1736              		.text
 1737              	.Letext0:
 1738              		.file 2 "c:\\program files (x86)\\cypress\\psoc creator\\4.3\\psoc creator\\import\\gnu\\arm\\5.4.
 1739              		.file 3 "c:\\program files (x86)\\cypress\\psoc creator\\4.3\\psoc creator\\import\\gnu\\arm\\5.4.
 1740              		.file 4 "Generated_Source\\PSoC5/cytypes.h"
 1741              		.file 5 "ErrorCodes.h"
 1742              		.file 6 "Generated_Source\\PSoC5/core_cm3.h"
 1743              		.file 7 "InterruptRoutines.h"
 1744              		.file 8 "Pages.h"
 1745              		.file 9 "25LC256.h"
 1746              		.file 10 "Generated_Source\\PSoC5/UART.h"
ARM GAS  C:\Users\indya\AppData\Local\Temp\ccRaUxid.s 			page 45


 1747              		.file 11 "Generated_Source\\PSoC5/SPIM_1.h"
 1748              		.file 12 "I2C_Interface.h"
 1749              		.file 13 "Generated_Source\\PSoC5/CyLib.h"
 1750              		.file 14 "Generated_Source\\PSoC5/AMux.h"
 1751              		.file 15 "Generated_Source\\PSoC5/ADC.h"
 1752              		.file 16 "Generated_Source\\PSoC5/Timer_sensor.h"
 1753              		.file 17 "Generated_Source\\PSoC5/isr_RX.h"
 1754              		.file 18 "Generated_Source\\PSoC5/ISR_PB_LOW.h"
 1755              		.file 19 "Generated_Source\\PSoC5/ISR_PB_HIGH.h"
 1756              		.file 20 "Generated_Source\\PSoC5/isr_FIFO.h"
 1757              		.file 21 "Generated_Source\\PSoC5/isr_TIMER.h"
 1758              		.file 22 "Generated_Source\\PSoC5/pin_LED_EXT.h"
 1759              		.file 23 "c:\\program files (x86)\\cypress\\psoc creator\\4.3\\psoc creator\\import\\gnu\\arm\\5.4
 1760              		.file 24 "Generated_Source\\PSoC5/PWM.h"