ARM GAS  C:\Users\LIUX\AppData\Local\Temp\ccv7OFxa.s 			page 1


   1              		.syntax unified
   2              		.cpu cortex-m3
   3              		.fpu softvfp
   4              		.eabi_attribute 20, 1
   5              		.eabi_attribute 21, 1
   6              		.eabi_attribute 23, 3
   7              		.eabi_attribute 24, 1
   8              		.eabi_attribute 25, 1
   9              		.eabi_attribute 26, 1
  10              		.eabi_attribute 30, 1
  11              		.eabi_attribute 34, 1
  12              		.eabi_attribute 18, 4
  13              		.thumb
  14              		.syntax unified
  15              		.file	"Pages.c"
  16              		.text
  17              	.Ltext0:
  18              		.cfi_sections	.debug_frame
  19              		.section	.text.WELCOME,"ax",%progbits
  20              		.align	2
  21              		.global	WELCOME
  22              		.thumb
  23              		.thumb_func
  24              		.type	WELCOME, %function
  25              	WELCOME:
  26              	.LFB64:
  27              		.file 1 "Pages.c"
   1:Pages.c       **** /* ========================================
   2:Pages.c       ****  *
   3:Pages.c       ****  * Copyright YOUR COMPANY, THE YEAR
   4:Pages.c       ****  * All Rights Reserved
   5:Pages.c       ****  * UNPUBLISHED, LICENSED SOFTWARE.
   6:Pages.c       ****  *
   7:Pages.c       ****  * CONFIDENTIAL AND PROPRIETARY INFORMATION
   8:Pages.c       ****  * WHICH IS THE PROPERTY OF your company.
   9:Pages.c       ****  *
  10:Pages.c       ****  * ========================================
  11:Pages.c       **** */
  12:Pages.c       **** 
  13:Pages.c       **** // Include header
  14:Pages.c       **** #include "Pages.h"
  15:Pages.c       **** #include "InterruptRoutines.h"
  16:Pages.c       **** 
  17:Pages.c       **** // Include required header files
  18:Pages.c       **** #include "project.h"
  19:Pages.c       **** 
  20:Pages.c       **** /**************************************************************************************************
  21:Pages.c       **** /*                                               WELCOME PAGE                                      
  22:Pages.c       **** /**************************************************************************************************
  23:Pages.c       **** 
  24:Pages.c       **** void WELCOME(void){
  28              		.loc 1 24 0
  29              		.cfi_startproc
  30              		@ args = 0, pretend = 0, frame = 0
  31              		@ frame_needed = 0, uses_anonymous_args = 0
  32 0000 2DE9F041 		push	{r4, r5, r6, r7, r8, lr}
  33              		.cfi_def_cfa_offset 24
ARM GAS  C:\Users\LIUX\AppData\Local\Temp\ccv7OFxa.s 			page 2


  34              		.cfi_offset 4, -24
  35              		.cfi_offset 5, -20
  36              		.cfi_offset 6, -16
  37              		.cfi_offset 7, -12
  38              		.cfi_offset 8, -8
  39              		.cfi_offset 14, -4
  25:Pages.c       ****     
  26:Pages.c       ****     UART_PutString("\r\n");
  40              		.loc 1 26 0
  41 0004 414E     		ldr	r6, .L3
  42 0006 3046     		mov	r0, r6
  43 0008 FFF7FEFF 		bl	UART_PutString
  44              	.LVL0:
  27:Pages.c       ****     UART_PutString("     ===============================================================\r\n");
  45              		.loc 1 27 0
  46 000c 404F     		ldr	r7, .L3+4
  47 000e 3846     		mov	r0, r7
  48 0010 FFF7FEFF 		bl	UART_PutString
  49              	.LVL1:
  28:Pages.c       ****     UART_PutString("     | /////////////// CONTROL PANNEL INSTRUCTIONS /////////////// |\r\n");
  50              		.loc 1 28 0
  51 0014 3F48     		ldr	r0, .L3+8
  52 0016 FFF7FEFF 		bl	UART_PutString
  53              	.LVL2:
  29:Pages.c       ****     UART_PutString("     ===============================================================\r\n");
  54              		.loc 1 29 0
  55 001a 3846     		mov	r0, r7
  56 001c FFF7FEFF 		bl	UART_PutString
  57              	.LVL3:
  30:Pages.c       ****     UART_PutString("     |                                                             |\r\n");
  58              		.loc 1 30 0
  59 0020 3D4C     		ldr	r4, .L3+12
  60 0022 2046     		mov	r0, r4
  61 0024 FFF7FEFF 		bl	UART_PutString
  62              	.LVL4:
  31:Pages.c       ****     UART_PutString("     |  O - summary of the latter commands entered                 |\r\n");
  63              		.loc 1 31 0
  64 0028 3C48     		ldr	r0, .L3+16
  65 002a FFF7FEFF 		bl	UART_PutString
  66              	.LVL5:
  32:Pages.c       ****     UART_PutString("     |                                                             |\r\n");
  67              		.loc 1 32 0
  68 002e 2046     		mov	r0, r4
  69 0030 FFF7FEFF 		bl	UART_PutString
  70              	.LVL6:
  33:Pages.c       ****     UART_PutString("     |  f - configuration of the accelerometer's FULL SCALE RANGE  |\r\n");
  71              		.loc 1 33 0
  72 0034 3A48     		ldr	r0, .L3+20
  73 0036 FFF7FEFF 		bl	UART_PutString
  74              	.LVL7:
  34:Pages.c       ****     UART_PutString("     |      +--------++---------+---------+---------+---------+    |\r\n");
  75              		.loc 1 34 0
  76 003a 3A4D     		ldr	r5, .L3+24
  77 003c 2846     		mov	r0, r5
  78 003e FFF7FEFF 		bl	UART_PutString
  79              	.LVL8:
  35:Pages.c       ****     UART_PutString("     |      |  char  ||    1    |    2    |    3    |    4    |    |\r\n");
ARM GAS  C:\Users\LIUX\AppData\Local\Temp\ccv7OFxa.s 			page 3


  80              		.loc 1 35 0
  81 0042 DFF82481 		ldr	r8, .L3+92
  82 0046 4046     		mov	r0, r8
  83 0048 FFF7FEFF 		bl	UART_PutString
  84              	.LVL9:
  36:Pages.c       ****     UART_PutString("     |      +--------++---------+---------+---------+---------+    |\r\n");
  85              		.loc 1 36 0
  86 004c 2846     		mov	r0, r5
  87 004e FFF7FEFF 		bl	UART_PutString
  88              	.LVL10:
  37:Pages.c       ****     UART_PutString("     |      |  FSR   ||  +-2g   |  +-4g   |  +-8g   |  +-16g  |    |\r\n");
  89              		.loc 1 37 0
  90 0052 3548     		ldr	r0, .L3+28
  91 0054 FFF7FEFF 		bl	UART_PutString
  92              	.LVL11:
  38:Pages.c       ****     UART_PutString("     |      +--------++---------+---------+---------+---------+    |\r\n");
  93              		.loc 1 38 0
  94 0058 2846     		mov	r0, r5
  95 005a FFF7FEFF 		bl	UART_PutString
  96              	.LVL12:
  39:Pages.c       ****     UART_PutString("     |                                                             |\r\n");
  97              		.loc 1 39 0
  98 005e 2046     		mov	r0, r4
  99 0060 FFF7FEFF 		bl	UART_PutString
 100              	.LVL13:
  40:Pages.c       ****     UART_PutString("     |  p - configuration of the accelerometer's SAMPLING FREQ.    |\r\n");
 101              		.loc 1 40 0
 102 0064 3148     		ldr	r0, .L3+32
 103 0066 FFF7FEFF 		bl	UART_PutString
 104              	.LVL14:
  41:Pages.c       ****     UART_PutString("     |      +--------++---------+---------+---------+---------+    |\r\n");
 105              		.loc 1 41 0
 106 006a 2846     		mov	r0, r5
 107 006c FFF7FEFF 		bl	UART_PutString
 108              	.LVL15:
  42:Pages.c       ****     UART_PutString("     |      |  char  ||    1    |    2    |    3    |    4    |    |\r\n");
 109              		.loc 1 42 0
 110 0070 4046     		mov	r0, r8
 111 0072 FFF7FEFF 		bl	UART_PutString
 112              	.LVL16:
  43:Pages.c       ****     UART_PutString("     |      +--------++---------+---------+---------+---------+    |\r\n");
 113              		.loc 1 43 0
 114 0076 2846     		mov	r0, r5
 115 0078 FFF7FEFF 		bl	UART_PutString
 116              	.LVL17:
  44:Pages.c       ****     UART_PutString("     |      |  SF    ||   1Hz   |   10Hz  |   25Hz  |   50Hz  |    |\r\n");
 117              		.loc 1 44 0
 118 007c 2C48     		ldr	r0, .L3+36
 119 007e FFF7FEFF 		bl	UART_PutString
 120              	.LVL18:
  45:Pages.c       ****     UART_PutString("     |      +--------++---------+---------+---------+---------+    |\r\n");
 121              		.loc 1 45 0
 122 0082 2846     		mov	r0, r5
 123 0084 FFF7FEFF 		bl	UART_PutString
 124              	.LVL19:
  46:Pages.c       ****     UART_PutString("     |                                                             |\r\n");
 125              		.loc 1 46 0
ARM GAS  C:\Users\LIUX\AppData\Local\Temp\ccv7OFxa.s 			page 4


 126 0088 2046     		mov	r0, r4
 127 008a FFF7FEFF 		bl	UART_PutString
 128              	.LVL20:
  47:Pages.c       ****     UART_PutString("     |  v - Start EEPROM data visualization                        |\r\n");
 129              		.loc 1 47 0
 130 008e 2948     		ldr	r0, .L3+40
 131 0090 FFF7FEFF 		bl	UART_PutString
 132              	.LVL21:
  48:Pages.c       ****     UART_PutString("     |  u - Stop EEPROM data visualization                         |\r\n");
 133              		.loc 1 48 0
 134 0094 2848     		ldr	r0, .L3+44
 135 0096 FFF7FEFF 		bl	UART_PutString
 136              	.LVL22:
  49:Pages.c       ****     UART_PutString("     |  l - Additional sensors data storing                        |\r\n");
 137              		.loc 1 49 0
 138 009a 2848     		ldr	r0, .L3+48
 139 009c FFF7FEFF 		bl	UART_PutString
 140              	.LVL23:
  50:Pages.c       ****     UART_PutString("     |                +--------++---------+---------+              |\r\n");
 141              		.loc 1 50 0
 142 00a0 274D     		ldr	r5, .L3+52
 143 00a2 2846     		mov	r0, r5
 144 00a4 FFF7FEFF 		bl	UART_PutString
 145              	.LVL24:
  51:Pages.c       ****     UART_PutString("     |                |  char  ||    1    |    2    |              |\r\n");
 146              		.loc 1 51 0
 147 00a8 2648     		ldr	r0, .L3+56
 148 00aa FFF7FEFF 		bl	UART_PutString
 149              	.LVL25:
  52:Pages.c       ****     UART_PutString("     |                +--------++---------+---------+              |\r\n");
 150              		.loc 1 52 0
 151 00ae 2846     		mov	r0, r5
 152 00b0 FFF7FEFF 		bl	UART_PutString
 153              	.LVL26:
  53:Pages.c       ****     UART_PutString("     |                |  SENS  ||   LDR   |   POT   |              |\r\n");
 154              		.loc 1 53 0
 155 00b4 2448     		ldr	r0, .L3+60
 156 00b6 FFF7FEFF 		bl	UART_PutString
 157              	.LVL27:
  54:Pages.c       ****     UART_PutString("     |                +--------++---------+---------+              |\r\n");
 158              		.loc 1 54 0
 159 00ba 2846     		mov	r0, r5
 160 00bc FFF7FEFF 		bl	UART_PutString
 161              	.LVL28:
  55:Pages.c       ****     UART_PutString("     |                                                             |\r\n");
 162              		.loc 1 55 0
 163 00c0 2046     		mov	r0, r4
 164 00c2 FFF7FEFF 		bl	UART_PutString
 165              	.LVL29:
  56:Pages.c       ****     UART_PutString("     |  b - Start acquisition from accelerometer and data storing  |\r\n");
 166              		.loc 1 56 0
 167 00c6 2148     		ldr	r0, .L3+64
 168 00c8 FFF7FEFF 		bl	UART_PutString
 169              	.LVL30:
  57:Pages.c       ****     UART_PutString("     |  s - Stop acquisition from accelerometer and data storing   |\r\n");
 170              		.loc 1 57 0
 171 00cc 2048     		ldr	r0, .L3+68
ARM GAS  C:\Users\LIUX\AppData\Local\Temp\ccv7OFxa.s 			page 5


 172 00ce FFF7FEFF 		bl	UART_PutString
 173              	.LVL31:
  58:Pages.c       ****     UART_PutString("     |                                                             |\r\n");
 174              		.loc 1 58 0
 175 00d2 2046     		mov	r0, r4
 176 00d4 FFF7FEFF 		bl	UART_PutString
 177              	.LVL32:
  59:Pages.c       ****     UART_PutString("     ===============================================================\r\n");
 178              		.loc 1 59 0
 179 00d8 3846     		mov	r0, r7
 180 00da FFF7FEFF 		bl	UART_PutString
 181              	.LVL33:
  60:Pages.c       ****     UART_PutString("\r\n");
 182              		.loc 1 60 0
 183 00de 3046     		mov	r0, r6
 184 00e0 FFF7FEFF 		bl	UART_PutString
 185              	.LVL34:
  61:Pages.c       ****     UART_PutString("     WARNING!!: do NOT enter commands like 'PLF 123' but rather 'P1 L2 F3' \r\n
 186              		.loc 1 61 0
 187 00e4 1B48     		ldr	r0, .L3+72
 188 00e6 FFF7FEFF 		bl	UART_PutString
 189              	.LVL35:
  62:Pages.c       ****     UART_PutString("     example 1: if 'PLF 123' are entered, P,L and F status flags are reset. \r\
 190              		.loc 1 62 0
 191 00ea 1B48     		ldr	r0, .L3+76
 192 00ec FFF7FEFF 		bl	UART_PutString
 193              	.LVL36:
  63:Pages.c       ****     UART_PutString("     example 2: if 'L3 P1'   are entered, P   and L status flags are reset. \r\
 194              		.loc 1 63 0
 195 00f0 1A48     		ldr	r0, .L3+80
 196 00f2 FFF7FEFF 		bl	UART_PutString
 197              	.LVL37:
  64:Pages.c       ****     UART_PutString("     example 3: if 'P5 2'    are entered, the sampling frequency is set to 10Hz
 198              		.loc 1 64 0
 199 00f6 1A48     		ldr	r0, .L3+84
 200 00f8 FFF7FEFF 		bl	UART_PutString
 201              	.LVL38:
  65:Pages.c       ****     UART_PutString("\r\n");
 202              		.loc 1 65 0
 203 00fc 3046     		mov	r0, r6
 204 00fe FFF7FEFF 		bl	UART_PutString
 205              	.LVL39:
  66:Pages.c       ****     UART_PutString("     Enter the new command:  \r\n");
 206              		.loc 1 66 0
 207 0102 1848     		ldr	r0, .L3+88
 208 0104 FFF7FEFF 		bl	UART_PutString
 209              	.LVL40:
 210 0108 BDE8F081 		pop	{r4, r5, r6, r7, r8, pc}
 211              	.L4:
 212              		.align	2
 213              	.L3:
 214 010c 00000000 		.word	.LC0
 215 0110 04000000 		.word	.LC1
 216 0114 4C000000 		.word	.LC2
 217 0118 94000000 		.word	.LC3
 218 011c DC000000 		.word	.LC4
 219 0120 24010000 		.word	.LC5
ARM GAS  C:\Users\LIUX\AppData\Local\Temp\ccv7OFxa.s 			page 6


 220 0124 6C010000 		.word	.LC6
 221 0128 FC010000 		.word	.LC8
 222 012c 44020000 		.word	.LC9
 223 0130 8C020000 		.word	.LC10
 224 0134 D4020000 		.word	.LC11
 225 0138 1C030000 		.word	.LC12
 226 013c 64030000 		.word	.LC13
 227 0140 AC030000 		.word	.LC14
 228 0144 F4030000 		.word	.LC15
 229 0148 3C040000 		.word	.LC16
 230 014c 84040000 		.word	.LC17
 231 0150 CC040000 		.word	.LC18
 232 0154 14050000 		.word	.LC19
 233 0158 64050000 		.word	.LC20
 234 015c B4050000 		.word	.LC21
 235 0160 04060000 		.word	.LC22
 236 0164 58060000 		.word	.LC23
 237 0168 B4010000 		.word	.LC7
 238              		.cfi_endproc
 239              	.LFE64:
 240              		.size	WELCOME, .-WELCOME
 241              		.section	.text.INFO,"ax",%progbits
 242              		.align	2
 243              		.global	INFO
 244              		.thumb
 245              		.thumb_func
 246              		.type	INFO, %function
 247              	INFO:
 248              	.LFB65:
  67:Pages.c       **** }
  68:Pages.c       **** 
  69:Pages.c       **** 
  70:Pages.c       **** /**************************************************************************************************
  71:Pages.c       **** /*                                                  INFO PAGE                                      
  72:Pages.c       **** /**************************************************************************************************
  73:Pages.c       **** 
  74:Pages.c       **** void INFO(void){
 249              		.loc 1 74 0
 250              		.cfi_startproc
 251              		@ args = 0, pretend = 0, frame = 0
 252              		@ frame_needed = 0, uses_anonymous_args = 0
 253 0000 08B5     		push	{r3, lr}
 254              		.cfi_def_cfa_offset 8
 255              		.cfi_offset 3, -8
 256              		.cfi_offset 14, -4
  75:Pages.c       ****     
  76:Pages.c       ****     UART_PutString(" \r\n");
 257              		.loc 1 76 0
 258 0002 3548     		ldr	r0, .L28
 259 0004 FFF7FEFF 		bl	UART_PutString
 260              	.LVL41:
  77:Pages.c       ****     UART_PutString("     Summary of the latter options entered: \r\n");
 261              		.loc 1 77 0
 262 0008 3448     		ldr	r0, .L28+4
 263 000a FFF7FEFF 		bl	UART_PutString
 264              	.LVL42:
  78:Pages.c       ****         
ARM GAS  C:\Users\LIUX\AppData\Local\Temp\ccv7OFxa.s 			page 7


  79:Pages.c       ****     switch(FLAG_BS)
 265              		.loc 1 79 0
 266 000e 344B     		ldr	r3, .L28+8
 267 0010 1B78     		ldrb	r3, [r3]	@ zero_extendqisi2
 268 0012 23B1     		cbz	r3, .L7
 269 0014 03F0FF02 		and	r2, r3, #255
 270 0018 012A     		cmp	r2, #1
 271 001a 04D0     		beq	.L8
 272 001c 06E0     		b	.L6
 273              	.L7:
  80:Pages.c       ****     {  
  81:Pages.c       ****         case 0:
  82:Pages.c       ****         UART_PutString("          General state: the acquisition is NOT running \r\n");
 274              		.loc 1 82 0
 275 001e 3148     		ldr	r0, .L28+12
 276 0020 FFF7FEFF 		bl	UART_PutString
 277              	.LVL43:
  83:Pages.c       ****         break;
 278              		.loc 1 83 0
 279 0024 02E0     		b	.L6
 280              	.L8:
  84:Pages.c       ****         
  85:Pages.c       ****         case 1:
  86:Pages.c       ****         UART_PutString("          General state: the acquisition is running \r\n");
 281              		.loc 1 86 0
 282 0026 3048     		ldr	r0, .L28+16
 283 0028 FFF7FEFF 		bl	UART_PutString
 284              	.LVL44:
 285              	.L6:
  87:Pages.c       ****         break;
  88:Pages.c       ****     }
  89:Pages.c       ****     
  90:Pages.c       ****     switch(OPTION_FSR)
 286              		.loc 1 90 0
 287 002c 2F4B     		ldr	r3, .L28+20
 288 002e 1B78     		ldrb	r3, [r3]	@ zero_extendqisi2
 289 0030 DBB2     		uxtb	r3, r3
 290 0032 042B     		cmp	r3, #4
 291 0034 17D8     		bhi	.L9
 292 0036 DFE803F0 		tbb	[pc, r3]
 293              	.L11:
 294 003a 03       		.byte	(.L10-.L11)/2
 295 003b 07       		.byte	(.L12-.L11)/2
 296 003c 0B       		.byte	(.L13-.L11)/2
 297 003d 0F       		.byte	(.L14-.L11)/2
 298 003e 13       		.byte	(.L15-.L11)/2
 299 003f 00       		.p2align 1
 300              	.L10:
  91:Pages.c       ****     {
  92:Pages.c       ****         case 0:
  93:Pages.c       ****         UART_PutString("       Full Scale Range: NOT modified yet in this session \r\n");
 301              		.loc 1 93 0
 302 0040 2B48     		ldr	r0, .L28+24
 303 0042 FFF7FEFF 		bl	UART_PutString
 304              	.LVL45:
  94:Pages.c       ****         break;
 305              		.loc 1 94 0
ARM GAS  C:\Users\LIUX\AppData\Local\Temp\ccv7OFxa.s 			page 8


 306 0046 0EE0     		b	.L9
 307              	.L12:
  95:Pages.c       ****         
  96:Pages.c       ****         case 1:
  97:Pages.c       ****         UART_PutString("       Full Scale Range: +-2g \r\n");
 308              		.loc 1 97 0
 309 0048 2A48     		ldr	r0, .L28+28
 310 004a FFF7FEFF 		bl	UART_PutString
 311              	.LVL46:
  98:Pages.c       ****         break;
 312              		.loc 1 98 0
 313 004e 0AE0     		b	.L9
 314              	.L13:
  99:Pages.c       ****         
 100:Pages.c       ****         case 2:
 101:Pages.c       ****         UART_PutString("       Full Scale Range: +-4g \r\n");
 315              		.loc 1 101 0
 316 0050 2948     		ldr	r0, .L28+32
 317 0052 FFF7FEFF 		bl	UART_PutString
 318              	.LVL47:
 102:Pages.c       ****         break;
 319              		.loc 1 102 0
 320 0056 06E0     		b	.L9
 321              	.L14:
 103:Pages.c       ****         
 104:Pages.c       ****         case 3:
 105:Pages.c       ****         UART_PutString("       Full Scale Range: +-8g \r\n");
 322              		.loc 1 105 0
 323 0058 2848     		ldr	r0, .L28+36
 324 005a FFF7FEFF 		bl	UART_PutString
 325              	.LVL48:
 106:Pages.c       ****         break;
 326              		.loc 1 106 0
 327 005e 02E0     		b	.L9
 328              	.L15:
 107:Pages.c       ****         
 108:Pages.c       ****         case 4:
 109:Pages.c       ****         UART_PutString("       Full Scale Range: +-16g \r\n");
 329              		.loc 1 109 0
 330 0060 2748     		ldr	r0, .L28+40
 331 0062 FFF7FEFF 		bl	UART_PutString
 332              	.LVL49:
 333              	.L9:
 110:Pages.c       ****         break;
 111:Pages.c       ****     }
 112:Pages.c       ****     
 113:Pages.c       ****     switch(OPTION_SF)
 334              		.loc 1 113 0
 335 0066 274B     		ldr	r3, .L28+44
 336 0068 1B78     		ldrb	r3, [r3]	@ zero_extendqisi2
 337 006a DBB2     		uxtb	r3, r3
 338 006c 042B     		cmp	r3, #4
 339 006e 17D8     		bhi	.L16
 340 0070 DFE803F0 		tbb	[pc, r3]
 341              	.L18:
 342 0074 03       		.byte	(.L17-.L18)/2
 343 0075 07       		.byte	(.L19-.L18)/2
ARM GAS  C:\Users\LIUX\AppData\Local\Temp\ccv7OFxa.s 			page 9


 344 0076 0B       		.byte	(.L20-.L18)/2
 345 0077 0F       		.byte	(.L21-.L18)/2
 346 0078 13       		.byte	(.L22-.L18)/2
 347 0079 00       		.p2align 1
 348              	.L17:
 114:Pages.c       ****     {
 115:Pages.c       ****         case 0:
 116:Pages.c       ****         UART_PutString("     Sampling Frequency: NOT modified yet in this session  \r\n");
 349              		.loc 1 116 0
 350 007a 2348     		ldr	r0, .L28+48
 351 007c FFF7FEFF 		bl	UART_PutString
 352              	.LVL50:
 117:Pages.c       ****         break;
 353              		.loc 1 117 0
 354 0080 0EE0     		b	.L16
 355              	.L19:
 118:Pages.c       ****         
 119:Pages.c       ****         case 1:
 120:Pages.c       ****         UART_PutString("     Sampling Frequency: 1Hz \r\n");
 356              		.loc 1 120 0
 357 0082 2248     		ldr	r0, .L28+52
 358 0084 FFF7FEFF 		bl	UART_PutString
 359              	.LVL51:
 121:Pages.c       ****         break;
 360              		.loc 1 121 0
 361 0088 0AE0     		b	.L16
 362              	.L20:
 122:Pages.c       ****         
 123:Pages.c       ****         case 2:
 124:Pages.c       ****         UART_PutString("     Sampling Frequency: 10Hz \r\n");
 363              		.loc 1 124 0
 364 008a 2148     		ldr	r0, .L28+56
 365 008c FFF7FEFF 		bl	UART_PutString
 366              	.LVL52:
 125:Pages.c       ****         break;
 367              		.loc 1 125 0
 368 0090 06E0     		b	.L16
 369              	.L21:
 126:Pages.c       ****         
 127:Pages.c       ****         case 3:
 128:Pages.c       ****         UART_PutString("     Sampling Frequency: 25Hz \r\n");
 370              		.loc 1 128 0
 371 0092 2048     		ldr	r0, .L28+60
 372 0094 FFF7FEFF 		bl	UART_PutString
 373              	.LVL53:
 129:Pages.c       ****         break;
 374              		.loc 1 129 0
 375 0098 02E0     		b	.L16
 376              	.L22:
 130:Pages.c       ****         
 131:Pages.c       ****         case 4:
 132:Pages.c       ****         UART_PutString("     Sampling Frequency: 50Hz \r\n");
 377              		.loc 1 132 0
 378 009a 1F48     		ldr	r0, .L28+64
 379 009c FFF7FEFF 		bl	UART_PutString
 380              	.LVL54:
 381              	.L16:
ARM GAS  C:\Users\LIUX\AppData\Local\Temp\ccv7OFxa.s 			page 10


 133:Pages.c       ****         break;
 134:Pages.c       ****     }
 135:Pages.c       ****     
 136:Pages.c       ****     switch(OPTION_AS)
 382              		.loc 1 136 0
 383 00a0 1E4B     		ldr	r3, .L28+68
 384 00a2 1B78     		ldrb	r3, [r3]	@ zero_extendqisi2
 385 00a4 DBB2     		uxtb	r3, r3
 386 00a6 012B     		cmp	r3, #1
 387 00a8 07D0     		beq	.L24
 388 00aa 13B1     		cbz	r3, .L25
 389 00ac 022B     		cmp	r3, #2
 390 00ae 08D0     		beq	.L26
 391 00b0 0AE0     		b	.L23
 392              	.L25:
 137:Pages.c       ****     {
 138:Pages.c       ****         case 0:
 139:Pages.c       ****         UART_PutString("      Additional Sensor: NOT modified yet in this session \r\n");
 393              		.loc 1 139 0
 394 00b2 1B48     		ldr	r0, .L28+72
 395 00b4 FFF7FEFF 		bl	UART_PutString
 396              	.LVL55:
 140:Pages.c       ****         break;
 397              		.loc 1 140 0
 398 00b8 06E0     		b	.L23
 399              	.L24:
 141:Pages.c       ****         
 142:Pages.c       ****         case 1:
 143:Pages.c       ****         UART_PutString("      Additional Sensor: LDR \r\n");
 400              		.loc 1 143 0
 401 00ba 1A48     		ldr	r0, .L28+76
 402 00bc FFF7FEFF 		bl	UART_PutString
 403              	.LVL56:
 144:Pages.c       ****         break;
 404              		.loc 1 144 0
 405 00c0 02E0     		b	.L23
 406              	.L26:
 145:Pages.c       ****         
 146:Pages.c       ****         case 2:
 147:Pages.c       ****         UART_PutString("      Additional Sensor: Potetiometer \r\n");
 407              		.loc 1 147 0
 408 00c2 1948     		ldr	r0, .L28+80
 409 00c4 FFF7FEFF 		bl	UART_PutString
 410              	.LVL57:
 411              	.L23:
 148:Pages.c       ****         break;
 149:Pages.c       ****     }
 150:Pages.c       ****     
 151:Pages.c       ****     UART_PutString(" \r\n");
 412              		.loc 1 151 0
 413 00c8 0348     		ldr	r0, .L28
 414 00ca FFF7FEFF 		bl	UART_PutString
 415              	.LVL58:
 152:Pages.c       ****     UART_PutString("     Enter the new command:  \r\n");
 416              		.loc 1 152 0
 417 00ce 1748     		ldr	r0, .L28+84
 418 00d0 FFF7FEFF 		bl	UART_PutString
ARM GAS  C:\Users\LIUX\AppData\Local\Temp\ccv7OFxa.s 			page 11


 419              	.LVL59:
 420 00d4 08BD     		pop	{r3, pc}
 421              	.L29:
 422 00d6 00BF     		.align	2
 423              	.L28:
 424 00d8 78060000 		.word	.LC24
 425 00dc 7C060000 		.word	.LC25
 426 00e0 00000000 		.word	FLAG_BS
 427 00e4 AC060000 		.word	.LC26
 428 00e8 E8060000 		.word	.LC27
 429 00ec 00000000 		.word	OPTION_FSR
 430 00f0 20070000 		.word	.LC28
 431 00f4 60070000 		.word	.LC29
 432 00f8 84070000 		.word	.LC30
 433 00fc A8070000 		.word	.LC31
 434 0100 CC070000 		.word	.LC32
 435 0104 00000000 		.word	OPTION_SF
 436 0108 F0070000 		.word	.LC33
 437 010c 30080000 		.word	.LC34
 438 0110 50080000 		.word	.LC35
 439 0114 74080000 		.word	.LC36
 440 0118 98080000 		.word	.LC37
 441 011c 00000000 		.word	OPTION_AS
 442 0120 BC080000 		.word	.LC38
 443 0124 FC080000 		.word	.LC39
 444 0128 1C090000 		.word	.LC40
 445 012c 58060000 		.word	.LC23
 446              		.cfi_endproc
 447              	.LFE65:
 448              		.size	INFO, .-INFO
 449              		.section	.text.PB_INFO,"ax",%progbits
 450              		.align	2
 451              		.global	PB_INFO
 452              		.thumb
 453              		.thumb_func
 454              		.type	PB_INFO, %function
 455              	PB_INFO:
 456              	.LFB66:
 153:Pages.c       **** }
 154:Pages.c       **** 
 155:Pages.c       **** /**************************************************************************************************
 156:Pages.c       **** /*                                           PUSH BUTTON INFO PAGE                                 
 157:Pages.c       **** /**************************************************************************************************
 158:Pages.c       **** 
 159:Pages.c       **** void PB_INFO(uint8_t PB_event){
 457              		.loc 1 159 0
 458              		.cfi_startproc
 459              		@ args = 0, pretend = 0, frame = 0
 460              		@ frame_needed = 0, uses_anonymous_args = 0
 461              	.LVL60:
 462 0000 10B5     		push	{r4, lr}
 463              		.cfi_def_cfa_offset 8
 464              		.cfi_offset 4, -8
 465              		.cfi_offset 14, -4
 160:Pages.c       ****     
 161:Pages.c       ****     switch(PB_event)
 466              		.loc 1 161 0
ARM GAS  C:\Users\LIUX\AppData\Local\Temp\ccv7OFxa.s 			page 12


 467 0002 0128     		cmp	r0, #1
 468 0004 02D0     		beq	.L32
 469 0006 0228     		cmp	r0, #2
 470 0008 17D0     		beq	.L33
 471 000a 10BD     		pop	{r4, pc}
 472              	.L32:
 162:Pages.c       ****     {
 163:Pages.c       ****         
 164:Pages.c       ****         case 1:
 165:Pages.c       ****             UART_PutString(" \r\n");
 473              		.loc 1 165 0
 474 000c 164C     		ldr	r4, .L35
 475 000e 2046     		mov	r0, r4
 476              	.LVL61:
 477 0010 FFF7FEFF 		bl	UART_PutString
 478              	.LVL62:
 166:Pages.c       ****             UART_PutString("     THE PUSH BUTTON HAS BEEN PRESSED \r\n");
 479              		.loc 1 166 0
 480 0014 1548     		ldr	r0, .L35+4
 481 0016 FFF7FEFF 		bl	UART_PutString
 482              	.LVL63:
 167:Pages.c       ****             UART_PutString(elapsed_time_string);
 483              		.loc 1 167 0
 484 001a 1548     		ldr	r0, .L35+8
 485 001c FFF7FEFF 		bl	UART_PutString
 486              	.LVL64:
 168:Pages.c       ****             UART_PutString("     The 'counter' has been reset \r\n");
 487              		.loc 1 168 0
 488 0020 1448     		ldr	r0, .L35+12
 489 0022 FFF7FEFF 		bl	UART_PutString
 490              	.LVL65:
 169:Pages.c       ****             UART_PutString(" \r\n");
 491              		.loc 1 169 0
 492 0026 2046     		mov	r0, r4
 493 0028 FFF7FEFF 		bl	UART_PutString
 494              	.LVL66:
 170:Pages.c       ****             UART_PutString("     Enter the new command: \r\n");
 495              		.loc 1 170 0
 496 002c 1248     		ldr	r0, .L35+16
 497 002e FFF7FEFF 		bl	UART_PutString
 498              	.LVL67:
 171:Pages.c       ****             
 172:Pages.c       ****             push_button_event = 0;
 499              		.loc 1 172 0
 500 0032 0022     		movs	r2, #0
 501 0034 114B     		ldr	r3, .L35+20
 502 0036 1A70     		strb	r2, [r3]
 173:Pages.c       ****         break;
 503              		.loc 1 173 0
 504 0038 10BD     		pop	{r4, pc}
 505              	.LVL68:
 506              	.L33:
 174:Pages.c       ****         
 175:Pages.c       ****         case 2:
 176:Pages.c       ****             UART_PutString(" \r\n");
 507              		.loc 1 176 0
 508 003a 0B4C     		ldr	r4, .L35
ARM GAS  C:\Users\LIUX\AppData\Local\Temp\ccv7OFxa.s 			page 13


 509 003c 2046     		mov	r0, r4
 510              	.LVL69:
 511 003e FFF7FEFF 		bl	UART_PutString
 512              	.LVL70:
 177:Pages.c       ****             UART_PutString("     THE PUSH BUTTON HAS BEEN PRESSED \r\n");
 513              		.loc 1 177 0
 514 0042 0A48     		ldr	r0, .L35+4
 515 0044 FFF7FEFF 		bl	UART_PutString
 516              	.LVL71:
 178:Pages.c       ****             UART_PutString(elapsed_time_string);
 517              		.loc 1 178 0
 518 0048 0948     		ldr	r0, .L35+8
 519 004a FFF7FEFF 		bl	UART_PutString
 520              	.LVL72:
 179:Pages.c       ****             UART_PutString("     The data storing has been restarted \r\n");
 521              		.loc 1 179 0
 522 004e 0C48     		ldr	r0, .L35+24
 523 0050 FFF7FEFF 		bl	UART_PutString
 524              	.LVL73:
 180:Pages.c       ****             UART_PutString(" \r\n");
 525              		.loc 1 180 0
 526 0054 2046     		mov	r0, r4
 527 0056 FFF7FEFF 		bl	UART_PutString
 528              	.LVL74:
 181:Pages.c       ****             UART_PutString("     Enter the new command: \r\n");
 529              		.loc 1 181 0
 530 005a 0748     		ldr	r0, .L35+16
 531 005c FFF7FEFF 		bl	UART_PutString
 532              	.LVL75:
 182:Pages.c       ****             
 183:Pages.c       ****             push_button_event = 0;
 533              		.loc 1 183 0
 534 0060 0022     		movs	r2, #0
 535 0062 064B     		ldr	r3, .L35+20
 536 0064 1A70     		strb	r2, [r3]
 537 0066 10BD     		pop	{r4, pc}
 538              	.L36:
 539              		.align	2
 540              	.L35:
 541 0068 78060000 		.word	.LC24
 542 006c 48090000 		.word	.LC41
 543 0070 00000000 		.word	elapsed_time_string
 544 0074 74090000 		.word	.LC42
 545 0078 9C090000 		.word	.LC43
 546 007c 00000000 		.word	push_button_event
 547 0080 BC090000 		.word	.LC44
 548              		.cfi_endproc
 549              	.LFE66:
 550              		.size	PB_INFO, .-PB_INFO
 551              		.comm	elapsed_time,2,2
 552              		.comm	elapsed_time_string,64,4
 553              		.comm	push_button_event,1,1
 554              		.comm	summary_ready,1,1
 555              		.comm	OPTION_AS,1,1
 556              		.comm	OPTION_SF,1,1
 557              		.comm	OPTION_FSR,1,1
 558              		.comm	FLAG_BS,1,1
ARM GAS  C:\Users\LIUX\AppData\Local\Temp\ccv7OFxa.s 			page 14


 559              		.comm	FLAG_AS,1,1
 560              		.comm	FLAG_SF,1,1
 561              		.comm	FLAG_FSR,1,1
 562              		.section	.rodata.str1.4,"aMS",%progbits,1
 563              		.align	2
 564              	.LC0:
 565 0000 0D0A00   		.ascii	"\015\012\000"
 566 0003 00       		.space	1
 567              	.LC1:
 568 0004 20202020 		.ascii	"     =============================================="
 568      203D3D3D 
 568      3D3D3D3D 
 568      3D3D3D3D 
 568      3D3D3D3D 
 569 0037 3D3D3D3D 		.ascii	"=================\015\012\000"
 569      3D3D3D3D 
 569      3D3D3D3D 
 569      3D3D3D3D 
 569      3D0D0A00 
 570 004b 00       		.space	1
 571              	.LC2:
 572 004c 20202020 		.ascii	"     | /////////////// CONTROL PANNEL INSTRUCTIONS "
 572      207C202F 
 572      2F2F2F2F 
 572      2F2F2F2F 
 572      2F2F2F2F 
 573 007f 2F2F2F2F 		.ascii	"/////////////// |\015\012\000"
 573      2F2F2F2F 
 573      2F2F2F2F 
 573      2F2F2F20 
 573      7C0D0A00 
 574 0093 00       		.space	1
 575              	.LC3:
 576 0094 20202020 		.ascii	"     |                                             "
 576      207C2020 
 576      20202020 
 576      20202020 
 576      20202020 
 577 00c7 20202020 		.ascii	"                |\015\012\000"
 577      20202020 
 577      20202020 
 577      20202020 
 577      7C0D0A00 
 578 00db 00       		.space	1
 579              	.LC4:
 580 00dc 20202020 		.ascii	"     |  O - summary of the latter commands entered "
 580      207C2020 
 580      4F202D20 
 580      73756D6D 
 580      61727920 
 581 010f 20202020 		.ascii	"                |\015\012\000"
 581      20202020 
 581      20202020 
 581      20202020 
 581      7C0D0A00 
 582 0123 00       		.space	1
 583              	.LC5:
ARM GAS  C:\Users\LIUX\AppData\Local\Temp\ccv7OFxa.s 			page 15


 584 0124 20202020 		.ascii	"     |  f - configuration of the accelerometer's FU"
 584      207C2020 
 584      66202D20 
 584      636F6E66 
 584      69677572 
 585 0157 4C4C2053 		.ascii	"LL SCALE RANGE  |\015\012\000"
 585      43414C45 
 585      2052414E 
 585      47452020 
 585      7C0D0A00 
 586 016b 00       		.space	1
 587              	.LC6:
 588 016c 20202020 		.ascii	"     |      +--------++---------+---------+--------"
 588      207C2020 
 588      20202020 
 588      2B2D2D2D 
 588      2D2D2D2D 
 589 019f 2D2B2D2D 		.ascii	"-+---------+    |\015\012\000"
 589      2D2D2D2D 
 589      2D2D2D2B 
 589      20202020 
 589      7C0D0A00 
 590 01b3 00       		.space	1
 591              	.LC7:
 592 01b4 20202020 		.ascii	"     |      |  char  ||    1    |    2    |    3   "
 592      207C2020 
 592      20202020 
 592      7C202063 
 592      68617220 
 593 01e7 207C2020 		.ascii	" |    4    |    |\015\012\000"
 593      20203420 
 593      2020207C 
 593      20202020 
 593      7C0D0A00 
 594 01fb 00       		.space	1
 595              	.LC8:
 596 01fc 20202020 		.ascii	"     |      |  FSR   ||  +-2g   |  +-4g   |  +-8g  "
 596      207C2020 
 596      20202020 
 596      7C202046 
 596      53522020 
 597 022f 207C2020 		.ascii	" |  +-16g  |    |\015\012\000"
 597      2B2D3136 
 597      6720207C 
 597      20202020 
 597      7C0D0A00 
 598 0243 00       		.space	1
 599              	.LC9:
 600 0244 20202020 		.ascii	"     |  p - configuration of the accelerometer's SA"
 600      207C2020 
 600      70202D20 
 600      636F6E66 
 600      69677572 
 601 0277 4D504C49 		.ascii	"MPLING FREQ.    |\015\012\000"
 601      4E472046 
 601      5245512E 
 601      20202020 
ARM GAS  C:\Users\LIUX\AppData\Local\Temp\ccv7OFxa.s 			page 16


 601      7C0D0A00 
 602 028b 00       		.space	1
 603              	.LC10:
 604 028c 20202020 		.ascii	"     |      |  SF    ||   1Hz   |   10Hz  |   25Hz "
 604      207C2020 
 604      20202020 
 604      7C202053 
 604      46202020 
 605 02bf 207C2020 		.ascii	" |   50Hz  |    |\015\012\000"
 605      20353048 
 605      7A20207C 
 605      20202020 
 605      7C0D0A00 
 606 02d3 00       		.space	1
 607              	.LC11:
 608 02d4 20202020 		.ascii	"     |  v - Start EEPROM data visualization        "
 608      207C2020 
 608      76202D20 
 608      53746172 
 608      74204545 
 609 0307 20202020 		.ascii	"                |\015\012\000"
 609      20202020 
 609      20202020 
 609      20202020 
 609      7C0D0A00 
 610 031b 00       		.space	1
 611              	.LC12:
 612 031c 20202020 		.ascii	"     |  u - Stop EEPROM data visualization         "
 612      207C2020 
 612      75202D20 
 612      53746F70 
 612      20454550 
 613 034f 20202020 		.ascii	"                |\015\012\000"
 613      20202020 
 613      20202020 
 613      20202020 
 613      7C0D0A00 
 614 0363 00       		.space	1
 615              	.LC13:
 616 0364 20202020 		.ascii	"     |  l - Additional sensors data storing        "
 616      207C2020 
 616      6C202D20 
 616      41646469 
 616      74696F6E 
 617 0397 20202020 		.ascii	"                |\015\012\000"
 617      20202020 
 617      20202020 
 617      20202020 
 617      7C0D0A00 
 618 03ab 00       		.space	1
 619              	.LC14:
 620 03ac 20202020 		.ascii	"     |                +--------++---------+--------"
 620      207C2020 
 620      20202020 
 620      20202020 
 620      20202020 
 621 03df 2D2B2020 		.ascii	"-+              |\015\012\000"
ARM GAS  C:\Users\LIUX\AppData\Local\Temp\ccv7OFxa.s 			page 17


 621      20202020 
 621      20202020 
 621      20202020 
 621      7C0D0A00 
 622 03f3 00       		.space	1
 623              	.LC15:
 624 03f4 20202020 		.ascii	"     |                |  char  ||    1    |    2   "
 624      207C2020 
 624      20202020 
 624      20202020 
 624      20202020 
 625 0427 207C2020 		.ascii	" |              |\015\012\000"
 625      20202020 
 625      20202020 
 625      20202020 
 625      7C0D0A00 
 626 043b 00       		.space	1
 627              	.LC16:
 628 043c 20202020 		.ascii	"     |                |  SENS  ||   LDR   |   POT  "
 628      207C2020 
 628      20202020 
 628      20202020 
 628      20202020 
 629 046f 207C2020 		.ascii	" |              |\015\012\000"
 629      20202020 
 629      20202020 
 629      20202020 
 629      7C0D0A00 
 630 0483 00       		.space	1
 631              	.LC17:
 632 0484 20202020 		.ascii	"     |  b - Start acquisition from accelerometer an"
 632      207C2020 
 632      62202D20 
 632      53746172 
 632      74206163 
 633 04b7 64206461 		.ascii	"d data storing  |\015\012\000"
 633      74612073 
 633      746F7269 
 633      6E672020 
 633      7C0D0A00 
 634 04cb 00       		.space	1
 635              	.LC18:
 636 04cc 20202020 		.ascii	"     |  s - Stop acquisition from accelerometer and"
 636      207C2020 
 636      73202D20 
 636      53746F70 
 636      20616371 
 637 04ff 20646174 		.ascii	" data storing   |\015\012\000"
 637      61207374 
 637      6F72696E 
 637      67202020 
 637      7C0D0A00 
 638 0513 00       		.space	1
 639              	.LC19:
 640 0514 20202020 		.ascii	"     WARNING!!: do NOT enter commands like 'PLF 123"
 640      20574152 
 640      4E494E47 
ARM GAS  C:\Users\LIUX\AppData\Local\Temp\ccv7OFxa.s 			page 18


 640      21213A20 
 640      646F204E 
 641 0547 27206275 		.ascii	"' but rather 'P1 L2 F3' \015\012\000"
 641      74207261 
 641      74686572 
 641      20275031 
 641      204C3220 
 642 0562 0000     		.space	2
 643              	.LC20:
 644 0564 20202020 		.ascii	"     example 1: if 'PLF 123' are entered, P,L and F"
 644      20657861 
 644      6D706C65 
 644      20313A20 
 644      69662027 
 645 0597 20737461 		.ascii	" status flags are reset. \015\012\000"
 645      74757320 
 645      666C6167 
 645      73206172 
 645      65207265 
 646 05b3 00       		.space	1
 647              	.LC21:
 648 05b4 20202020 		.ascii	"     example 2: if 'L3 P1'   are entered, P   and L"
 648      20657861 
 648      6D706C65 
 648      20323A20 
 648      69662027 
 649 05e7 20737461 		.ascii	" status flags are reset. \015\012\000"
 649      74757320 
 649      666C6167 
 649      73206172 
 649      65207265 
 650 0603 00       		.space	1
 651              	.LC22:
 652 0604 20202020 		.ascii	"     example 3: if 'P5 2'    are entered, the sampl"
 652      20657861 
 652      6D706C65 
 652      20333A20 
 652      69662027 
 653 0637 696E6720 		.ascii	"ing frequency is set to 10Hz. \015\012\000"
 653      66726571 
 653      75656E63 
 653      79206973 
 653      20736574 
 654              	.LC23:
 655 0658 20202020 		.ascii	"     Enter the new command:  \015\012\000"
 655      20456E74 
 655      65722074 
 655      6865206E 
 655      65772063 
 656              	.LC24:
 657 0678 200D0A00 		.ascii	" \015\012\000"
 658              	.LC25:
 659 067c 20202020 		.ascii	"     Summary of the latter options entered: \015\012"
 659      2053756D 
 659      6D617279 
 659      206F6620 
 659      74686520 
ARM GAS  C:\Users\LIUX\AppData\Local\Temp\ccv7OFxa.s 			page 19


 660 06aa 00       		.ascii	"\000"
 661 06ab 00       		.space	1
 662              	.LC26:
 663 06ac 20202020 		.ascii	"          General state: the acquisition is NOT run"
 663      20202020 
 663      20204765 
 663      6E657261 
 663      6C207374 
 664 06df 6E696E67 		.ascii	"ning \015\012\000"
 664      200D0A00 
 665 06e7 00       		.space	1
 666              	.LC27:
 667 06e8 20202020 		.ascii	"          General state: the acquisition is running"
 667      20202020 
 667      20204765 
 667      6E657261 
 667      6C207374 
 668 071b 200D0A00 		.ascii	" \015\012\000"
 669 071f 00       		.space	1
 670              	.LC28:
 671 0720 20202020 		.ascii	"       Full Scale Range: NOT modified yet in this s"
 671      20202046 
 671      756C6C20 
 671      5363616C 
 671      65205261 
 672 0753 65737369 		.ascii	"ession \015\012\000"
 672      6F6E200D 
 672      0A00
 673 075d 000000   		.space	3
 674              	.LC29:
 675 0760 20202020 		.ascii	"       Full Scale Range: +-2g \015\012\000"
 675      20202046 
 675      756C6C20 
 675      5363616C 
 675      65205261 
 676 0781 000000   		.space	3
 677              	.LC30:
 678 0784 20202020 		.ascii	"       Full Scale Range: +-4g \015\012\000"
 678      20202046 
 678      756C6C20 
 678      5363616C 
 678      65205261 
 679 07a5 000000   		.space	3
 680              	.LC31:
 681 07a8 20202020 		.ascii	"       Full Scale Range: +-8g \015\012\000"
 681      20202046 
 681      756C6C20 
 681      5363616C 
 681      65205261 
 682 07c9 000000   		.space	3
 683              	.LC32:
 684 07cc 20202020 		.ascii	"       Full Scale Range: +-16g \015\012\000"
 684      20202046 
 684      756C6C20 
 684      5363616C 
 684      65205261 
 685 07ee 0000     		.space	2
ARM GAS  C:\Users\LIUX\AppData\Local\Temp\ccv7OFxa.s 			page 20


 686              	.LC33:
 687 07f0 20202020 		.ascii	"     Sampling Frequency: NOT modified yet in this s"
 687      2053616D 
 687      706C696E 
 687      67204672 
 687      65717565 
 688 0823 65737369 		.ascii	"ession  \015\012\000"
 688      6F6E2020 
 688      0D0A00
 689 082e 0000     		.space	2
 690              	.LC34:
 691 0830 20202020 		.ascii	"     Sampling Frequency: 1Hz \015\012\000"
 691      2053616D 
 691      706C696E 
 691      67204672 
 691      65717565 
 692              	.LC35:
 693 0850 20202020 		.ascii	"     Sampling Frequency: 10Hz \015\012\000"
 693      2053616D 
 693      706C696E 
 693      67204672 
 693      65717565 
 694 0871 000000   		.space	3
 695              	.LC36:
 696 0874 20202020 		.ascii	"     Sampling Frequency: 25Hz \015\012\000"
 696      2053616D 
 696      706C696E 
 696      67204672 
 696      65717565 
 697 0895 000000   		.space	3
 698              	.LC37:
 699 0898 20202020 		.ascii	"     Sampling Frequency: 50Hz \015\012\000"
 699      2053616D 
 699      706C696E 
 699      67204672 
 699      65717565 
 700 08b9 000000   		.space	3
 701              	.LC38:
 702 08bc 20202020 		.ascii	"      Additional Sensor: NOT modified yet in this s"
 702      20204164 
 702      64697469 
 702      6F6E616C 
 702      2053656E 
 703 08ef 65737369 		.ascii	"ession \015\012\000"
 703      6F6E200D 
 703      0A00
 704 08f9 000000   		.space	3
 705              	.LC39:
 706 08fc 20202020 		.ascii	"      Additional Sensor: LDR \015\012\000"
 706      20204164 
 706      64697469 
 706      6F6E616C 
 706      2053656E 
 707              	.LC40:
 708 091c 20202020 		.ascii	"      Additional Sensor: Potetiometer \015\012\000"
 708      20204164 
 708      64697469 
ARM GAS  C:\Users\LIUX\AppData\Local\Temp\ccv7OFxa.s 			page 21


 708      6F6E616C 
 708      2053656E 
 709 0945 000000   		.space	3
 710              	.LC41:
 711 0948 20202020 		.ascii	"     THE PUSH BUTTON HAS BEEN PRESSED \015\012\000"
 711      20544845 
 711      20505553 
 711      48204255 
 711      54544F4E 
 712 0971 000000   		.space	3
 713              	.LC42:
 714 0974 20202020 		.ascii	"     The 'counter' has been reset \015\012\000"
 714      20546865 
 714      2027636F 
 714      756E7465 
 714      72272068 
 715 0999 000000   		.space	3
 716              	.LC43:
 717 099c 20202020 		.ascii	"     Enter the new command: \015\012\000"
 717      20456E74 
 717      65722074 
 717      6865206E 
 717      65772063 
 718 09bb 00       		.space	1
 719              	.LC44:
 720 09bc 20202020 		.ascii	"     The data storing has been restarted \015\012\000"
 720      20546865 
 720      20646174 
 720      61207374 
 720      6F72696E 
 721              		.text
 722              	.Letext0:
 723              		.file 2 "c:\\program files\\cypress\\psoc creator\\4.3\\psoc creator\\import\\gnu\\arm\\5.4.1\\arm
 724              		.file 3 "c:\\program files\\cypress\\psoc creator\\4.3\\psoc creator\\import\\gnu\\arm\\5.4.1\\arm
 725              		.file 4 "Generated_Source\\PSoC5/cytypes.h"
 726              		.file 5 "Pages.h"
 727              		.file 6 "InterruptRoutines.h"
 728              		.file 7 "Generated_Source\\PSoC5/core_cm3.h"
 729              		.file 8 "Generated_Source\\PSoC5/UART.h"